
obj/kernel.full:     file format elf64-x86-64


Disassembly of section .text:

0000000000040000 <_kernel_start>:
   40000:	48 c7 c4 00 00 08 00 	mov    $0x80000,%rsp
   40007:	48 89 e5             	mov    %rsp,%rbp
   4000a:	6a 00                	push   $0x0
   4000c:	9d                   	popf
   4000d:	3d 02 b0 ad 2b       	cmp    $0x2badb002,%eax
   40012:	75 0d                	jne    40021 <_kernel_start+0x21>
   40014:	f7 03 04 00 00 00    	testl  $0x4,(%rbx)
   4001a:	74 05                	je     40021 <_kernel_start+0x21>
   4001c:	8b 7b 10             	mov    0x10(%rbx),%edi
   4001f:	eb 07                	jmp    40028 <_kernel_start+0x28>
   40021:	48 c7 c7 00 00 00 00 	mov    $0x0,%rdi
   40028:	e9 ef 1b 00 00       	jmp    41c1c <kernel_start(char const*)>

000000000004002d <exception_entry_0>:
   4002d:	6a 00                	push   $0x0
   4002f:	6a 00                	push   $0x0
   40031:	e9 3c 0a 00 00       	jmp    40a72 <exception_entry()>

0000000000040036 <exception_entry_1>:
   40036:	6a 00                	push   $0x0
   40038:	6a 01                	push   $0x1
   4003a:	e9 33 0a 00 00       	jmp    40a72 <exception_entry()>

000000000004003f <exception_entry_2>:
   4003f:	6a 00                	push   $0x0
   40041:	6a 02                	push   $0x2
   40043:	e9 2a 0a 00 00       	jmp    40a72 <exception_entry()>

0000000000040048 <exception_entry_3>:
   40048:	6a 00                	push   $0x0
   4004a:	6a 03                	push   $0x3
   4004c:	e9 21 0a 00 00       	jmp    40a72 <exception_entry()>

0000000000040051 <exception_entry_4>:
   40051:	6a 00                	push   $0x0
   40053:	6a 04                	push   $0x4
   40055:	e9 18 0a 00 00       	jmp    40a72 <exception_entry()>

000000000004005a <exception_entry_5>:
   4005a:	6a 00                	push   $0x0
   4005c:	6a 05                	push   $0x5
   4005e:	e9 0f 0a 00 00       	jmp    40a72 <exception_entry()>

0000000000040063 <exception_entry_6>:
   40063:	6a 00                	push   $0x0
   40065:	6a 06                	push   $0x6
   40067:	e9 06 0a 00 00       	jmp    40a72 <exception_entry()>

000000000004006c <exception_entry_7>:
   4006c:	6a 00                	push   $0x0
   4006e:	6a 07                	push   $0x7
   40070:	e9 fd 09 00 00       	jmp    40a72 <exception_entry()>

0000000000040075 <exception_entry_8>:
   40075:	6a 08                	push   $0x8
   40077:	e9 f6 09 00 00       	jmp    40a72 <exception_entry()>

000000000004007c <exception_entry_9>:
   4007c:	6a 00                	push   $0x0
   4007e:	6a 09                	push   $0x9
   40080:	e9 ed 09 00 00       	jmp    40a72 <exception_entry()>

0000000000040085 <exception_entry_10>:
   40085:	6a 0a                	push   $0xa
   40087:	e9 e6 09 00 00       	jmp    40a72 <exception_entry()>

000000000004008c <exception_entry_11>:
   4008c:	6a 0b                	push   $0xb
   4008e:	e9 df 09 00 00       	jmp    40a72 <exception_entry()>

0000000000040093 <exception_entry_12>:
   40093:	6a 0c                	push   $0xc
   40095:	e9 d8 09 00 00       	jmp    40a72 <exception_entry()>

000000000004009a <exception_entry_13>:
   4009a:	6a 0d                	push   $0xd
   4009c:	e9 d1 09 00 00       	jmp    40a72 <exception_entry()>

00000000000400a1 <exception_entry_14>:
   400a1:	6a 0e                	push   $0xe
   400a3:	e9 ca 09 00 00       	jmp    40a72 <exception_entry()>

00000000000400a8 <exception_entry_15>:
   400a8:	6a 00                	push   $0x0
   400aa:	6a 0f                	push   $0xf
   400ac:	e9 c1 09 00 00       	jmp    40a72 <exception_entry()>

00000000000400b1 <exception_entry_16>:
   400b1:	6a 00                	push   $0x0
   400b3:	6a 10                	push   $0x10
   400b5:	e9 b8 09 00 00       	jmp    40a72 <exception_entry()>

00000000000400ba <exception_entry_17>:
   400ba:	6a 11                	push   $0x11
   400bc:	e9 b1 09 00 00       	jmp    40a72 <exception_entry()>

00000000000400c1 <exception_entry_18>:
   400c1:	6a 00                	push   $0x0
   400c3:	6a 12                	push   $0x12
   400c5:	e9 a8 09 00 00       	jmp    40a72 <exception_entry()>

00000000000400ca <exception_entry_19>:
   400ca:	6a 00                	push   $0x0
   400cc:	6a 13                	push   $0x13
   400ce:	e9 9f 09 00 00       	jmp    40a72 <exception_entry()>

00000000000400d3 <exception_entry_20>:
   400d3:	6a 00                	push   $0x0
   400d5:	6a 14                	push   $0x14
   400d7:	e9 96 09 00 00       	jmp    40a72 <exception_entry()>

00000000000400dc <exception_entry_21>:
   400dc:	6a 00                	push   $0x0
   400de:	6a 15                	push   $0x15
   400e0:	e9 8d 09 00 00       	jmp    40a72 <exception_entry()>

00000000000400e5 <exception_entry_22>:
   400e5:	6a 00                	push   $0x0
   400e7:	6a 16                	push   $0x16
   400e9:	e9 84 09 00 00       	jmp    40a72 <exception_entry()>

00000000000400ee <exception_entry_23>:
   400ee:	6a 00                	push   $0x0
   400f0:	6a 17                	push   $0x17
   400f2:	e9 7b 09 00 00       	jmp    40a72 <exception_entry()>

00000000000400f7 <exception_entry_24>:
   400f7:	6a 00                	push   $0x0
   400f9:	6a 18                	push   $0x18
   400fb:	e9 72 09 00 00       	jmp    40a72 <exception_entry()>

0000000000040100 <exception_entry_25>:
   40100:	6a 00                	push   $0x0
   40102:	6a 19                	push   $0x19
   40104:	e9 69 09 00 00       	jmp    40a72 <exception_entry()>

0000000000040109 <exception_entry_26>:
   40109:	6a 00                	push   $0x0
   4010b:	6a 1a                	push   $0x1a
   4010d:	e9 60 09 00 00       	jmp    40a72 <exception_entry()>

0000000000040112 <exception_entry_27>:
   40112:	6a 00                	push   $0x0
   40114:	6a 1b                	push   $0x1b
   40116:	e9 57 09 00 00       	jmp    40a72 <exception_entry()>

000000000004011b <exception_entry_28>:
   4011b:	6a 00                	push   $0x0
   4011d:	6a 1c                	push   $0x1c
   4011f:	e9 4e 09 00 00       	jmp    40a72 <exception_entry()>

0000000000040124 <exception_entry_29>:
   40124:	6a 00                	push   $0x0
   40126:	6a 1d                	push   $0x1d
   40128:	e9 45 09 00 00       	jmp    40a72 <exception_entry()>

000000000004012d <exception_entry_30>:
   4012d:	6a 00                	push   $0x0
   4012f:	6a 1e                	push   $0x1e
   40131:	e9 3c 09 00 00       	jmp    40a72 <exception_entry()>

0000000000040136 <exception_entry_31>:
   40136:	6a 00                	push   $0x0
   40138:	6a 1f                	push   $0x1f
   4013a:	e9 33 09 00 00       	jmp    40a72 <exception_entry()>

000000000004013f <exception_entry_32>:
   4013f:	6a 00                	push   $0x0
   40141:	6a 20                	push   $0x20
   40143:	e9 2a 09 00 00       	jmp    40a72 <exception_entry()>

0000000000040148 <exception_entry_33>:
   40148:	6a 00                	push   $0x0
   4014a:	6a 21                	push   $0x21
   4014c:	e9 21 09 00 00       	jmp    40a72 <exception_entry()>

0000000000040151 <exception_entry_34>:
   40151:	6a 00                	push   $0x0
   40153:	6a 22                	push   $0x22
   40155:	e9 18 09 00 00       	jmp    40a72 <exception_entry()>

000000000004015a <exception_entry_35>:
   4015a:	6a 00                	push   $0x0
   4015c:	6a 23                	push   $0x23
   4015e:	e9 0f 09 00 00       	jmp    40a72 <exception_entry()>

0000000000040163 <exception_entry_36>:
   40163:	6a 00                	push   $0x0
   40165:	6a 24                	push   $0x24
   40167:	e9 06 09 00 00       	jmp    40a72 <exception_entry()>

000000000004016c <exception_entry_37>:
   4016c:	6a 00                	push   $0x0
   4016e:	6a 25                	push   $0x25
   40170:	e9 fd 08 00 00       	jmp    40a72 <exception_entry()>

0000000000040175 <exception_entry_38>:
   40175:	6a 00                	push   $0x0
   40177:	6a 26                	push   $0x26
   40179:	e9 f4 08 00 00       	jmp    40a72 <exception_entry()>

000000000004017e <exception_entry_39>:
   4017e:	6a 00                	push   $0x0
   40180:	6a 27                	push   $0x27
   40182:	e9 eb 08 00 00       	jmp    40a72 <exception_entry()>

0000000000040187 <exception_entry_40>:
   40187:	6a 00                	push   $0x0
   40189:	6a 28                	push   $0x28
   4018b:	e9 e2 08 00 00       	jmp    40a72 <exception_entry()>

0000000000040190 <exception_entry_41>:
   40190:	6a 00                	push   $0x0
   40192:	6a 29                	push   $0x29
   40194:	e9 d9 08 00 00       	jmp    40a72 <exception_entry()>

0000000000040199 <exception_entry_42>:
   40199:	6a 00                	push   $0x0
   4019b:	6a 2a                	push   $0x2a
   4019d:	e9 d0 08 00 00       	jmp    40a72 <exception_entry()>

00000000000401a2 <exception_entry_43>:
   401a2:	6a 00                	push   $0x0
   401a4:	6a 2b                	push   $0x2b
   401a6:	e9 c7 08 00 00       	jmp    40a72 <exception_entry()>

00000000000401ab <exception_entry_44>:
   401ab:	6a 00                	push   $0x0
   401ad:	6a 2c                	push   $0x2c
   401af:	e9 be 08 00 00       	jmp    40a72 <exception_entry()>

00000000000401b4 <exception_entry_45>:
   401b4:	6a 00                	push   $0x0
   401b6:	6a 2d                	push   $0x2d
   401b8:	e9 b5 08 00 00       	jmp    40a72 <exception_entry()>

00000000000401bd <exception_entry_46>:
   401bd:	6a 00                	push   $0x0
   401bf:	6a 2e                	push   $0x2e
   401c1:	e9 ac 08 00 00       	jmp    40a72 <exception_entry()>

00000000000401c6 <exception_entry_47>:
   401c6:	6a 00                	push   $0x0
   401c8:	6a 2f                	push   $0x2f
   401ca:	e9 a3 08 00 00       	jmp    40a72 <exception_entry()>

00000000000401cf <exception_entry_48>:
   401cf:	6a 00                	push   $0x0
   401d1:	6a 30                	push   $0x30
   401d3:	e9 9a 08 00 00       	jmp    40a72 <exception_entry()>

00000000000401d8 <exception_entry_49>:
   401d8:	6a 00                	push   $0x0
   401da:	6a 31                	push   $0x31
   401dc:	e9 91 08 00 00       	jmp    40a72 <exception_entry()>

00000000000401e1 <exception_entry_50>:
   401e1:	6a 00                	push   $0x0
   401e3:	6a 32                	push   $0x32
   401e5:	e9 88 08 00 00       	jmp    40a72 <exception_entry()>

00000000000401ea <exception_entry_51>:
   401ea:	6a 00                	push   $0x0
   401ec:	6a 33                	push   $0x33
   401ee:	e9 7f 08 00 00       	jmp    40a72 <exception_entry()>

00000000000401f3 <exception_entry_52>:
   401f3:	6a 00                	push   $0x0
   401f5:	6a 34                	push   $0x34
   401f7:	e9 76 08 00 00       	jmp    40a72 <exception_entry()>

00000000000401fc <exception_entry_53>:
   401fc:	6a 00                	push   $0x0
   401fe:	6a 35                	push   $0x35
   40200:	e9 6d 08 00 00       	jmp    40a72 <exception_entry()>

0000000000040205 <exception_entry_54>:
   40205:	6a 00                	push   $0x0
   40207:	6a 36                	push   $0x36
   40209:	e9 64 08 00 00       	jmp    40a72 <exception_entry()>

000000000004020e <exception_entry_55>:
   4020e:	6a 00                	push   $0x0
   40210:	6a 37                	push   $0x37
   40212:	e9 5b 08 00 00       	jmp    40a72 <exception_entry()>

0000000000040217 <exception_entry_56>:
   40217:	6a 00                	push   $0x0
   40219:	6a 38                	push   $0x38
   4021b:	e9 52 08 00 00       	jmp    40a72 <exception_entry()>

0000000000040220 <exception_entry_57>:
   40220:	6a 00                	push   $0x0
   40222:	6a 39                	push   $0x39
   40224:	e9 49 08 00 00       	jmp    40a72 <exception_entry()>

0000000000040229 <exception_entry_58>:
   40229:	6a 00                	push   $0x0
   4022b:	6a 3a                	push   $0x3a
   4022d:	e9 40 08 00 00       	jmp    40a72 <exception_entry()>

0000000000040232 <exception_entry_59>:
   40232:	6a 00                	push   $0x0
   40234:	6a 3b                	push   $0x3b
   40236:	e9 37 08 00 00       	jmp    40a72 <exception_entry()>

000000000004023b <exception_entry_60>:
   4023b:	6a 00                	push   $0x0
   4023d:	6a 3c                	push   $0x3c
   4023f:	e9 2e 08 00 00       	jmp    40a72 <exception_entry()>

0000000000040244 <exception_entry_61>:
   40244:	6a 00                	push   $0x0
   40246:	6a 3d                	push   $0x3d
   40248:	e9 25 08 00 00       	jmp    40a72 <exception_entry()>

000000000004024d <exception_entry_62>:
   4024d:	6a 00                	push   $0x0
   4024f:	6a 3e                	push   $0x3e
   40251:	e9 1c 08 00 00       	jmp    40a72 <exception_entry()>

0000000000040256 <exception_entry_63>:
   40256:	6a 00                	push   $0x0
   40258:	6a 3f                	push   $0x3f
   4025a:	e9 13 08 00 00       	jmp    40a72 <exception_entry()>

000000000004025f <exception_entry_64>:
   4025f:	6a 00                	push   $0x0
   40261:	6a 40                	push   $0x40
   40263:	e9 0a 08 00 00       	jmp    40a72 <exception_entry()>

0000000000040268 <exception_entry_65>:
   40268:	6a 00                	push   $0x0
   4026a:	6a 41                	push   $0x41
   4026c:	e9 01 08 00 00       	jmp    40a72 <exception_entry()>

0000000000040271 <exception_entry_66>:
   40271:	6a 00                	push   $0x0
   40273:	6a 42                	push   $0x42
   40275:	e9 f8 07 00 00       	jmp    40a72 <exception_entry()>

000000000004027a <exception_entry_67>:
   4027a:	6a 00                	push   $0x0
   4027c:	6a 43                	push   $0x43
   4027e:	e9 ef 07 00 00       	jmp    40a72 <exception_entry()>

0000000000040283 <exception_entry_68>:
   40283:	6a 00                	push   $0x0
   40285:	6a 44                	push   $0x44
   40287:	e9 e6 07 00 00       	jmp    40a72 <exception_entry()>

000000000004028c <exception_entry_69>:
   4028c:	6a 00                	push   $0x0
   4028e:	6a 45                	push   $0x45
   40290:	e9 dd 07 00 00       	jmp    40a72 <exception_entry()>

0000000000040295 <exception_entry_70>:
   40295:	6a 00                	push   $0x0
   40297:	6a 46                	push   $0x46
   40299:	e9 d4 07 00 00       	jmp    40a72 <exception_entry()>

000000000004029e <exception_entry_71>:
   4029e:	6a 00                	push   $0x0
   402a0:	6a 47                	push   $0x47
   402a2:	e9 cb 07 00 00       	jmp    40a72 <exception_entry()>

00000000000402a7 <exception_entry_72>:
   402a7:	6a 00                	push   $0x0
   402a9:	6a 48                	push   $0x48
   402ab:	e9 c2 07 00 00       	jmp    40a72 <exception_entry()>

00000000000402b0 <exception_entry_73>:
   402b0:	6a 00                	push   $0x0
   402b2:	6a 49                	push   $0x49
   402b4:	e9 b9 07 00 00       	jmp    40a72 <exception_entry()>

00000000000402b9 <exception_entry_74>:
   402b9:	6a 00                	push   $0x0
   402bb:	6a 4a                	push   $0x4a
   402bd:	e9 b0 07 00 00       	jmp    40a72 <exception_entry()>

00000000000402c2 <exception_entry_75>:
   402c2:	6a 00                	push   $0x0
   402c4:	6a 4b                	push   $0x4b
   402c6:	e9 a7 07 00 00       	jmp    40a72 <exception_entry()>

00000000000402cb <exception_entry_76>:
   402cb:	6a 00                	push   $0x0
   402cd:	6a 4c                	push   $0x4c
   402cf:	e9 9e 07 00 00       	jmp    40a72 <exception_entry()>

00000000000402d4 <exception_entry_77>:
   402d4:	6a 00                	push   $0x0
   402d6:	6a 4d                	push   $0x4d
   402d8:	e9 95 07 00 00       	jmp    40a72 <exception_entry()>

00000000000402dd <exception_entry_78>:
   402dd:	6a 00                	push   $0x0
   402df:	6a 4e                	push   $0x4e
   402e1:	e9 8c 07 00 00       	jmp    40a72 <exception_entry()>

00000000000402e6 <exception_entry_79>:
   402e6:	6a 00                	push   $0x0
   402e8:	6a 4f                	push   $0x4f
   402ea:	e9 83 07 00 00       	jmp    40a72 <exception_entry()>

00000000000402ef <exception_entry_80>:
   402ef:	6a 00                	push   $0x0
   402f1:	6a 50                	push   $0x50
   402f3:	e9 7a 07 00 00       	jmp    40a72 <exception_entry()>

00000000000402f8 <exception_entry_81>:
   402f8:	6a 00                	push   $0x0
   402fa:	6a 51                	push   $0x51
   402fc:	e9 71 07 00 00       	jmp    40a72 <exception_entry()>

0000000000040301 <exception_entry_82>:
   40301:	6a 00                	push   $0x0
   40303:	6a 52                	push   $0x52
   40305:	e9 68 07 00 00       	jmp    40a72 <exception_entry()>

000000000004030a <exception_entry_83>:
   4030a:	6a 00                	push   $0x0
   4030c:	6a 53                	push   $0x53
   4030e:	e9 5f 07 00 00       	jmp    40a72 <exception_entry()>

0000000000040313 <exception_entry_84>:
   40313:	6a 00                	push   $0x0
   40315:	6a 54                	push   $0x54
   40317:	e9 56 07 00 00       	jmp    40a72 <exception_entry()>

000000000004031c <exception_entry_85>:
   4031c:	6a 00                	push   $0x0
   4031e:	6a 55                	push   $0x55
   40320:	e9 4d 07 00 00       	jmp    40a72 <exception_entry()>

0000000000040325 <exception_entry_86>:
   40325:	6a 00                	push   $0x0
   40327:	6a 56                	push   $0x56
   40329:	e9 44 07 00 00       	jmp    40a72 <exception_entry()>

000000000004032e <exception_entry_87>:
   4032e:	6a 00                	push   $0x0
   40330:	6a 57                	push   $0x57
   40332:	e9 3b 07 00 00       	jmp    40a72 <exception_entry()>

0000000000040337 <exception_entry_88>:
   40337:	6a 00                	push   $0x0
   40339:	6a 58                	push   $0x58
   4033b:	e9 32 07 00 00       	jmp    40a72 <exception_entry()>

0000000000040340 <exception_entry_89>:
   40340:	6a 00                	push   $0x0
   40342:	6a 59                	push   $0x59
   40344:	e9 29 07 00 00       	jmp    40a72 <exception_entry()>

0000000000040349 <exception_entry_90>:
   40349:	6a 00                	push   $0x0
   4034b:	6a 5a                	push   $0x5a
   4034d:	e9 20 07 00 00       	jmp    40a72 <exception_entry()>

0000000000040352 <exception_entry_91>:
   40352:	6a 00                	push   $0x0
   40354:	6a 5b                	push   $0x5b
   40356:	e9 17 07 00 00       	jmp    40a72 <exception_entry()>

000000000004035b <exception_entry_92>:
   4035b:	6a 00                	push   $0x0
   4035d:	6a 5c                	push   $0x5c
   4035f:	e9 0e 07 00 00       	jmp    40a72 <exception_entry()>

0000000000040364 <exception_entry_93>:
   40364:	6a 00                	push   $0x0
   40366:	6a 5d                	push   $0x5d
   40368:	e9 05 07 00 00       	jmp    40a72 <exception_entry()>

000000000004036d <exception_entry_94>:
   4036d:	6a 00                	push   $0x0
   4036f:	6a 5e                	push   $0x5e
   40371:	e9 fc 06 00 00       	jmp    40a72 <exception_entry()>

0000000000040376 <exception_entry_95>:
   40376:	6a 00                	push   $0x0
   40378:	6a 5f                	push   $0x5f
   4037a:	e9 f3 06 00 00       	jmp    40a72 <exception_entry()>

000000000004037f <exception_entry_96>:
   4037f:	6a 00                	push   $0x0
   40381:	6a 60                	push   $0x60
   40383:	e9 ea 06 00 00       	jmp    40a72 <exception_entry()>

0000000000040388 <exception_entry_97>:
   40388:	6a 00                	push   $0x0
   4038a:	6a 61                	push   $0x61
   4038c:	e9 e1 06 00 00       	jmp    40a72 <exception_entry()>

0000000000040391 <exception_entry_98>:
   40391:	6a 00                	push   $0x0
   40393:	6a 62                	push   $0x62
   40395:	e9 d8 06 00 00       	jmp    40a72 <exception_entry()>

000000000004039a <exception_entry_99>:
   4039a:	6a 00                	push   $0x0
   4039c:	6a 63                	push   $0x63
   4039e:	e9 cf 06 00 00       	jmp    40a72 <exception_entry()>

00000000000403a3 <exception_entry_100>:
   403a3:	6a 00                	push   $0x0
   403a5:	6a 64                	push   $0x64
   403a7:	e9 c6 06 00 00       	jmp    40a72 <exception_entry()>

00000000000403ac <exception_entry_101>:
   403ac:	6a 00                	push   $0x0
   403ae:	6a 65                	push   $0x65
   403b0:	e9 bd 06 00 00       	jmp    40a72 <exception_entry()>

00000000000403b5 <exception_entry_102>:
   403b5:	6a 00                	push   $0x0
   403b7:	6a 66                	push   $0x66
   403b9:	e9 b4 06 00 00       	jmp    40a72 <exception_entry()>

00000000000403be <exception_entry_103>:
   403be:	6a 00                	push   $0x0
   403c0:	6a 67                	push   $0x67
   403c2:	e9 ab 06 00 00       	jmp    40a72 <exception_entry()>

00000000000403c7 <exception_entry_104>:
   403c7:	6a 00                	push   $0x0
   403c9:	6a 68                	push   $0x68
   403cb:	e9 a2 06 00 00       	jmp    40a72 <exception_entry()>

00000000000403d0 <exception_entry_105>:
   403d0:	6a 00                	push   $0x0
   403d2:	6a 69                	push   $0x69
   403d4:	e9 99 06 00 00       	jmp    40a72 <exception_entry()>

00000000000403d9 <exception_entry_106>:
   403d9:	6a 00                	push   $0x0
   403db:	6a 6a                	push   $0x6a
   403dd:	e9 90 06 00 00       	jmp    40a72 <exception_entry()>

00000000000403e2 <exception_entry_107>:
   403e2:	6a 00                	push   $0x0
   403e4:	6a 6b                	push   $0x6b
   403e6:	e9 87 06 00 00       	jmp    40a72 <exception_entry()>

00000000000403eb <exception_entry_108>:
   403eb:	6a 00                	push   $0x0
   403ed:	6a 6c                	push   $0x6c
   403ef:	e9 7e 06 00 00       	jmp    40a72 <exception_entry()>

00000000000403f4 <exception_entry_109>:
   403f4:	6a 00                	push   $0x0
   403f6:	6a 6d                	push   $0x6d
   403f8:	e9 75 06 00 00       	jmp    40a72 <exception_entry()>

00000000000403fd <exception_entry_110>:
   403fd:	6a 00                	push   $0x0
   403ff:	6a 6e                	push   $0x6e
   40401:	e9 6c 06 00 00       	jmp    40a72 <exception_entry()>

0000000000040406 <exception_entry_111>:
   40406:	6a 00                	push   $0x0
   40408:	6a 6f                	push   $0x6f
   4040a:	e9 63 06 00 00       	jmp    40a72 <exception_entry()>

000000000004040f <exception_entry_112>:
   4040f:	6a 00                	push   $0x0
   40411:	6a 70                	push   $0x70
   40413:	e9 5a 06 00 00       	jmp    40a72 <exception_entry()>

0000000000040418 <exception_entry_113>:
   40418:	6a 00                	push   $0x0
   4041a:	6a 71                	push   $0x71
   4041c:	e9 51 06 00 00       	jmp    40a72 <exception_entry()>

0000000000040421 <exception_entry_114>:
   40421:	6a 00                	push   $0x0
   40423:	6a 72                	push   $0x72
   40425:	e9 48 06 00 00       	jmp    40a72 <exception_entry()>

000000000004042a <exception_entry_115>:
   4042a:	6a 00                	push   $0x0
   4042c:	6a 73                	push   $0x73
   4042e:	e9 3f 06 00 00       	jmp    40a72 <exception_entry()>

0000000000040433 <exception_entry_116>:
   40433:	6a 00                	push   $0x0
   40435:	6a 74                	push   $0x74
   40437:	e9 36 06 00 00       	jmp    40a72 <exception_entry()>

000000000004043c <exception_entry_117>:
   4043c:	6a 00                	push   $0x0
   4043e:	6a 75                	push   $0x75
   40440:	e9 2d 06 00 00       	jmp    40a72 <exception_entry()>

0000000000040445 <exception_entry_118>:
   40445:	6a 00                	push   $0x0
   40447:	6a 76                	push   $0x76
   40449:	e9 24 06 00 00       	jmp    40a72 <exception_entry()>

000000000004044e <exception_entry_119>:
   4044e:	6a 00                	push   $0x0
   40450:	6a 77                	push   $0x77
   40452:	e9 1b 06 00 00       	jmp    40a72 <exception_entry()>

0000000000040457 <exception_entry_120>:
   40457:	6a 00                	push   $0x0
   40459:	6a 78                	push   $0x78
   4045b:	e9 12 06 00 00       	jmp    40a72 <exception_entry()>

0000000000040460 <exception_entry_121>:
   40460:	6a 00                	push   $0x0
   40462:	6a 79                	push   $0x79
   40464:	e9 09 06 00 00       	jmp    40a72 <exception_entry()>

0000000000040469 <exception_entry_122>:
   40469:	6a 00                	push   $0x0
   4046b:	6a 7a                	push   $0x7a
   4046d:	e9 00 06 00 00       	jmp    40a72 <exception_entry()>

0000000000040472 <exception_entry_123>:
   40472:	6a 00                	push   $0x0
   40474:	6a 7b                	push   $0x7b
   40476:	e9 f7 05 00 00       	jmp    40a72 <exception_entry()>

000000000004047b <exception_entry_124>:
   4047b:	6a 00                	push   $0x0
   4047d:	6a 7c                	push   $0x7c
   4047f:	e9 ee 05 00 00       	jmp    40a72 <exception_entry()>

0000000000040484 <exception_entry_125>:
   40484:	6a 00                	push   $0x0
   40486:	6a 7d                	push   $0x7d
   40488:	e9 e5 05 00 00       	jmp    40a72 <exception_entry()>

000000000004048d <exception_entry_126>:
   4048d:	6a 00                	push   $0x0
   4048f:	6a 7e                	push   $0x7e
   40491:	e9 dc 05 00 00       	jmp    40a72 <exception_entry()>

0000000000040496 <exception_entry_127>:
   40496:	6a 00                	push   $0x0
   40498:	6a 7f                	push   $0x7f
   4049a:	e9 d3 05 00 00       	jmp    40a72 <exception_entry()>

000000000004049f <exception_entry_128>:
   4049f:	6a 00                	push   $0x0
   404a1:	68 80 00 00 00       	push   $0x80
   404a6:	e9 c7 05 00 00       	jmp    40a72 <exception_entry()>

00000000000404ab <exception_entry_129>:
   404ab:	6a 00                	push   $0x0
   404ad:	68 81 00 00 00       	push   $0x81
   404b2:	e9 bb 05 00 00       	jmp    40a72 <exception_entry()>

00000000000404b7 <exception_entry_130>:
   404b7:	6a 00                	push   $0x0
   404b9:	68 82 00 00 00       	push   $0x82
   404be:	e9 af 05 00 00       	jmp    40a72 <exception_entry()>

00000000000404c3 <exception_entry_131>:
   404c3:	6a 00                	push   $0x0
   404c5:	68 83 00 00 00       	push   $0x83
   404ca:	e9 a3 05 00 00       	jmp    40a72 <exception_entry()>

00000000000404cf <exception_entry_132>:
   404cf:	6a 00                	push   $0x0
   404d1:	68 84 00 00 00       	push   $0x84
   404d6:	e9 97 05 00 00       	jmp    40a72 <exception_entry()>

00000000000404db <exception_entry_133>:
   404db:	6a 00                	push   $0x0
   404dd:	68 85 00 00 00       	push   $0x85
   404e2:	e9 8b 05 00 00       	jmp    40a72 <exception_entry()>

00000000000404e7 <exception_entry_134>:
   404e7:	6a 00                	push   $0x0
   404e9:	68 86 00 00 00       	push   $0x86
   404ee:	e9 7f 05 00 00       	jmp    40a72 <exception_entry()>

00000000000404f3 <exception_entry_135>:
   404f3:	6a 00                	push   $0x0
   404f5:	68 87 00 00 00       	push   $0x87
   404fa:	e9 73 05 00 00       	jmp    40a72 <exception_entry()>

00000000000404ff <exception_entry_136>:
   404ff:	6a 00                	push   $0x0
   40501:	68 88 00 00 00       	push   $0x88
   40506:	e9 67 05 00 00       	jmp    40a72 <exception_entry()>

000000000004050b <exception_entry_137>:
   4050b:	6a 00                	push   $0x0
   4050d:	68 89 00 00 00       	push   $0x89
   40512:	e9 5b 05 00 00       	jmp    40a72 <exception_entry()>

0000000000040517 <exception_entry_138>:
   40517:	6a 00                	push   $0x0
   40519:	68 8a 00 00 00       	push   $0x8a
   4051e:	e9 4f 05 00 00       	jmp    40a72 <exception_entry()>

0000000000040523 <exception_entry_139>:
   40523:	6a 00                	push   $0x0
   40525:	68 8b 00 00 00       	push   $0x8b
   4052a:	e9 43 05 00 00       	jmp    40a72 <exception_entry()>

000000000004052f <exception_entry_140>:
   4052f:	6a 00                	push   $0x0
   40531:	68 8c 00 00 00       	push   $0x8c
   40536:	e9 37 05 00 00       	jmp    40a72 <exception_entry()>

000000000004053b <exception_entry_141>:
   4053b:	6a 00                	push   $0x0
   4053d:	68 8d 00 00 00       	push   $0x8d
   40542:	e9 2b 05 00 00       	jmp    40a72 <exception_entry()>

0000000000040547 <exception_entry_142>:
   40547:	6a 00                	push   $0x0
   40549:	68 8e 00 00 00       	push   $0x8e
   4054e:	e9 1f 05 00 00       	jmp    40a72 <exception_entry()>

0000000000040553 <exception_entry_143>:
   40553:	6a 00                	push   $0x0
   40555:	68 8f 00 00 00       	push   $0x8f
   4055a:	e9 13 05 00 00       	jmp    40a72 <exception_entry()>

000000000004055f <exception_entry_144>:
   4055f:	6a 00                	push   $0x0
   40561:	68 90 00 00 00       	push   $0x90
   40566:	e9 07 05 00 00       	jmp    40a72 <exception_entry()>

000000000004056b <exception_entry_145>:
   4056b:	6a 00                	push   $0x0
   4056d:	68 91 00 00 00       	push   $0x91
   40572:	e9 fb 04 00 00       	jmp    40a72 <exception_entry()>

0000000000040577 <exception_entry_146>:
   40577:	6a 00                	push   $0x0
   40579:	68 92 00 00 00       	push   $0x92
   4057e:	e9 ef 04 00 00       	jmp    40a72 <exception_entry()>

0000000000040583 <exception_entry_147>:
   40583:	6a 00                	push   $0x0
   40585:	68 93 00 00 00       	push   $0x93
   4058a:	e9 e3 04 00 00       	jmp    40a72 <exception_entry()>

000000000004058f <exception_entry_148>:
   4058f:	6a 00                	push   $0x0
   40591:	68 94 00 00 00       	push   $0x94
   40596:	e9 d7 04 00 00       	jmp    40a72 <exception_entry()>

000000000004059b <exception_entry_149>:
   4059b:	6a 00                	push   $0x0
   4059d:	68 95 00 00 00       	push   $0x95
   405a2:	e9 cb 04 00 00       	jmp    40a72 <exception_entry()>

00000000000405a7 <exception_entry_150>:
   405a7:	6a 00                	push   $0x0
   405a9:	68 96 00 00 00       	push   $0x96
   405ae:	e9 bf 04 00 00       	jmp    40a72 <exception_entry()>

00000000000405b3 <exception_entry_151>:
   405b3:	6a 00                	push   $0x0
   405b5:	68 97 00 00 00       	push   $0x97
   405ba:	e9 b3 04 00 00       	jmp    40a72 <exception_entry()>

00000000000405bf <exception_entry_152>:
   405bf:	6a 00                	push   $0x0
   405c1:	68 98 00 00 00       	push   $0x98
   405c6:	e9 a7 04 00 00       	jmp    40a72 <exception_entry()>

00000000000405cb <exception_entry_153>:
   405cb:	6a 00                	push   $0x0
   405cd:	68 99 00 00 00       	push   $0x99
   405d2:	e9 9b 04 00 00       	jmp    40a72 <exception_entry()>

00000000000405d7 <exception_entry_154>:
   405d7:	6a 00                	push   $0x0
   405d9:	68 9a 00 00 00       	push   $0x9a
   405de:	e9 8f 04 00 00       	jmp    40a72 <exception_entry()>

00000000000405e3 <exception_entry_155>:
   405e3:	6a 00                	push   $0x0
   405e5:	68 9b 00 00 00       	push   $0x9b
   405ea:	e9 83 04 00 00       	jmp    40a72 <exception_entry()>

00000000000405ef <exception_entry_156>:
   405ef:	6a 00                	push   $0x0
   405f1:	68 9c 00 00 00       	push   $0x9c
   405f6:	e9 77 04 00 00       	jmp    40a72 <exception_entry()>

00000000000405fb <exception_entry_157>:
   405fb:	6a 00                	push   $0x0
   405fd:	68 9d 00 00 00       	push   $0x9d
   40602:	e9 6b 04 00 00       	jmp    40a72 <exception_entry()>

0000000000040607 <exception_entry_158>:
   40607:	6a 00                	push   $0x0
   40609:	68 9e 00 00 00       	push   $0x9e
   4060e:	e9 5f 04 00 00       	jmp    40a72 <exception_entry()>

0000000000040613 <exception_entry_159>:
   40613:	6a 00                	push   $0x0
   40615:	68 9f 00 00 00       	push   $0x9f
   4061a:	e9 53 04 00 00       	jmp    40a72 <exception_entry()>

000000000004061f <exception_entry_160>:
   4061f:	6a 00                	push   $0x0
   40621:	68 a0 00 00 00       	push   $0xa0
   40626:	e9 47 04 00 00       	jmp    40a72 <exception_entry()>

000000000004062b <exception_entry_161>:
   4062b:	6a 00                	push   $0x0
   4062d:	68 a1 00 00 00       	push   $0xa1
   40632:	e9 3b 04 00 00       	jmp    40a72 <exception_entry()>

0000000000040637 <exception_entry_162>:
   40637:	6a 00                	push   $0x0
   40639:	68 a2 00 00 00       	push   $0xa2
   4063e:	e9 2f 04 00 00       	jmp    40a72 <exception_entry()>

0000000000040643 <exception_entry_163>:
   40643:	6a 00                	push   $0x0
   40645:	68 a3 00 00 00       	push   $0xa3
   4064a:	e9 23 04 00 00       	jmp    40a72 <exception_entry()>

000000000004064f <exception_entry_164>:
   4064f:	6a 00                	push   $0x0
   40651:	68 a4 00 00 00       	push   $0xa4
   40656:	e9 17 04 00 00       	jmp    40a72 <exception_entry()>

000000000004065b <exception_entry_165>:
   4065b:	6a 00                	push   $0x0
   4065d:	68 a5 00 00 00       	push   $0xa5
   40662:	e9 0b 04 00 00       	jmp    40a72 <exception_entry()>

0000000000040667 <exception_entry_166>:
   40667:	6a 00                	push   $0x0
   40669:	68 a6 00 00 00       	push   $0xa6
   4066e:	e9 ff 03 00 00       	jmp    40a72 <exception_entry()>

0000000000040673 <exception_entry_167>:
   40673:	6a 00                	push   $0x0
   40675:	68 a7 00 00 00       	push   $0xa7
   4067a:	e9 f3 03 00 00       	jmp    40a72 <exception_entry()>

000000000004067f <exception_entry_168>:
   4067f:	6a 00                	push   $0x0
   40681:	68 a8 00 00 00       	push   $0xa8
   40686:	e9 e7 03 00 00       	jmp    40a72 <exception_entry()>

000000000004068b <exception_entry_169>:
   4068b:	6a 00                	push   $0x0
   4068d:	68 a9 00 00 00       	push   $0xa9
   40692:	e9 db 03 00 00       	jmp    40a72 <exception_entry()>

0000000000040697 <exception_entry_170>:
   40697:	6a 00                	push   $0x0
   40699:	68 aa 00 00 00       	push   $0xaa
   4069e:	e9 cf 03 00 00       	jmp    40a72 <exception_entry()>

00000000000406a3 <exception_entry_171>:
   406a3:	6a 00                	push   $0x0
   406a5:	68 ab 00 00 00       	push   $0xab
   406aa:	e9 c3 03 00 00       	jmp    40a72 <exception_entry()>

00000000000406af <exception_entry_172>:
   406af:	6a 00                	push   $0x0
   406b1:	68 ac 00 00 00       	push   $0xac
   406b6:	e9 b7 03 00 00       	jmp    40a72 <exception_entry()>

00000000000406bb <exception_entry_173>:
   406bb:	6a 00                	push   $0x0
   406bd:	68 ad 00 00 00       	push   $0xad
   406c2:	e9 ab 03 00 00       	jmp    40a72 <exception_entry()>

00000000000406c7 <exception_entry_174>:
   406c7:	6a 00                	push   $0x0
   406c9:	68 ae 00 00 00       	push   $0xae
   406ce:	e9 9f 03 00 00       	jmp    40a72 <exception_entry()>

00000000000406d3 <exception_entry_175>:
   406d3:	6a 00                	push   $0x0
   406d5:	68 af 00 00 00       	push   $0xaf
   406da:	e9 93 03 00 00       	jmp    40a72 <exception_entry()>

00000000000406df <exception_entry_176>:
   406df:	6a 00                	push   $0x0
   406e1:	68 b0 00 00 00       	push   $0xb0
   406e6:	e9 87 03 00 00       	jmp    40a72 <exception_entry()>

00000000000406eb <exception_entry_177>:
   406eb:	6a 00                	push   $0x0
   406ed:	68 b1 00 00 00       	push   $0xb1
   406f2:	e9 7b 03 00 00       	jmp    40a72 <exception_entry()>

00000000000406f7 <exception_entry_178>:
   406f7:	6a 00                	push   $0x0
   406f9:	68 b2 00 00 00       	push   $0xb2
   406fe:	e9 6f 03 00 00       	jmp    40a72 <exception_entry()>

0000000000040703 <exception_entry_179>:
   40703:	6a 00                	push   $0x0
   40705:	68 b3 00 00 00       	push   $0xb3
   4070a:	e9 63 03 00 00       	jmp    40a72 <exception_entry()>

000000000004070f <exception_entry_180>:
   4070f:	6a 00                	push   $0x0
   40711:	68 b4 00 00 00       	push   $0xb4
   40716:	e9 57 03 00 00       	jmp    40a72 <exception_entry()>

000000000004071b <exception_entry_181>:
   4071b:	6a 00                	push   $0x0
   4071d:	68 b5 00 00 00       	push   $0xb5
   40722:	e9 4b 03 00 00       	jmp    40a72 <exception_entry()>

0000000000040727 <exception_entry_182>:
   40727:	6a 00                	push   $0x0
   40729:	68 b6 00 00 00       	push   $0xb6
   4072e:	e9 3f 03 00 00       	jmp    40a72 <exception_entry()>

0000000000040733 <exception_entry_183>:
   40733:	6a 00                	push   $0x0
   40735:	68 b7 00 00 00       	push   $0xb7
   4073a:	e9 33 03 00 00       	jmp    40a72 <exception_entry()>

000000000004073f <exception_entry_184>:
   4073f:	6a 00                	push   $0x0
   40741:	68 b8 00 00 00       	push   $0xb8
   40746:	e9 27 03 00 00       	jmp    40a72 <exception_entry()>

000000000004074b <exception_entry_185>:
   4074b:	6a 00                	push   $0x0
   4074d:	68 b9 00 00 00       	push   $0xb9
   40752:	e9 1b 03 00 00       	jmp    40a72 <exception_entry()>

0000000000040757 <exception_entry_186>:
   40757:	6a 00                	push   $0x0
   40759:	68 ba 00 00 00       	push   $0xba
   4075e:	e9 0f 03 00 00       	jmp    40a72 <exception_entry()>

0000000000040763 <exception_entry_187>:
   40763:	6a 00                	push   $0x0
   40765:	68 bb 00 00 00       	push   $0xbb
   4076a:	e9 03 03 00 00       	jmp    40a72 <exception_entry()>

000000000004076f <exception_entry_188>:
   4076f:	6a 00                	push   $0x0
   40771:	68 bc 00 00 00       	push   $0xbc
   40776:	e9 f7 02 00 00       	jmp    40a72 <exception_entry()>

000000000004077b <exception_entry_189>:
   4077b:	6a 00                	push   $0x0
   4077d:	68 bd 00 00 00       	push   $0xbd
   40782:	e9 eb 02 00 00       	jmp    40a72 <exception_entry()>

0000000000040787 <exception_entry_190>:
   40787:	6a 00                	push   $0x0
   40789:	68 be 00 00 00       	push   $0xbe
   4078e:	e9 df 02 00 00       	jmp    40a72 <exception_entry()>

0000000000040793 <exception_entry_191>:
   40793:	6a 00                	push   $0x0
   40795:	68 bf 00 00 00       	push   $0xbf
   4079a:	e9 d3 02 00 00       	jmp    40a72 <exception_entry()>

000000000004079f <exception_entry_192>:
   4079f:	6a 00                	push   $0x0
   407a1:	68 c0 00 00 00       	push   $0xc0
   407a6:	e9 c7 02 00 00       	jmp    40a72 <exception_entry()>

00000000000407ab <exception_entry_193>:
   407ab:	6a 00                	push   $0x0
   407ad:	68 c1 00 00 00       	push   $0xc1
   407b2:	e9 bb 02 00 00       	jmp    40a72 <exception_entry()>

00000000000407b7 <exception_entry_194>:
   407b7:	6a 00                	push   $0x0
   407b9:	68 c2 00 00 00       	push   $0xc2
   407be:	e9 af 02 00 00       	jmp    40a72 <exception_entry()>

00000000000407c3 <exception_entry_195>:
   407c3:	6a 00                	push   $0x0
   407c5:	68 c3 00 00 00       	push   $0xc3
   407ca:	e9 a3 02 00 00       	jmp    40a72 <exception_entry()>

00000000000407cf <exception_entry_196>:
   407cf:	6a 00                	push   $0x0
   407d1:	68 c4 00 00 00       	push   $0xc4
   407d6:	e9 97 02 00 00       	jmp    40a72 <exception_entry()>

00000000000407db <exception_entry_197>:
   407db:	6a 00                	push   $0x0
   407dd:	68 c5 00 00 00       	push   $0xc5
   407e2:	e9 8b 02 00 00       	jmp    40a72 <exception_entry()>

00000000000407e7 <exception_entry_198>:
   407e7:	6a 00                	push   $0x0
   407e9:	68 c6 00 00 00       	push   $0xc6
   407ee:	e9 7f 02 00 00       	jmp    40a72 <exception_entry()>

00000000000407f3 <exception_entry_199>:
   407f3:	6a 00                	push   $0x0
   407f5:	68 c7 00 00 00       	push   $0xc7
   407fa:	e9 73 02 00 00       	jmp    40a72 <exception_entry()>

00000000000407ff <exception_entry_200>:
   407ff:	6a 00                	push   $0x0
   40801:	68 c8 00 00 00       	push   $0xc8
   40806:	e9 67 02 00 00       	jmp    40a72 <exception_entry()>

000000000004080b <exception_entry_201>:
   4080b:	6a 00                	push   $0x0
   4080d:	68 c9 00 00 00       	push   $0xc9
   40812:	e9 5b 02 00 00       	jmp    40a72 <exception_entry()>

0000000000040817 <exception_entry_202>:
   40817:	6a 00                	push   $0x0
   40819:	68 ca 00 00 00       	push   $0xca
   4081e:	e9 4f 02 00 00       	jmp    40a72 <exception_entry()>

0000000000040823 <exception_entry_203>:
   40823:	6a 00                	push   $0x0
   40825:	68 cb 00 00 00       	push   $0xcb
   4082a:	e9 43 02 00 00       	jmp    40a72 <exception_entry()>

000000000004082f <exception_entry_204>:
   4082f:	6a 00                	push   $0x0
   40831:	68 cc 00 00 00       	push   $0xcc
   40836:	e9 37 02 00 00       	jmp    40a72 <exception_entry()>

000000000004083b <exception_entry_205>:
   4083b:	6a 00                	push   $0x0
   4083d:	68 cd 00 00 00       	push   $0xcd
   40842:	e9 2b 02 00 00       	jmp    40a72 <exception_entry()>

0000000000040847 <exception_entry_206>:
   40847:	6a 00                	push   $0x0
   40849:	68 ce 00 00 00       	push   $0xce
   4084e:	e9 1f 02 00 00       	jmp    40a72 <exception_entry()>

0000000000040853 <exception_entry_207>:
   40853:	6a 00                	push   $0x0
   40855:	68 cf 00 00 00       	push   $0xcf
   4085a:	e9 13 02 00 00       	jmp    40a72 <exception_entry()>

000000000004085f <exception_entry_208>:
   4085f:	6a 00                	push   $0x0
   40861:	68 d0 00 00 00       	push   $0xd0
   40866:	e9 07 02 00 00       	jmp    40a72 <exception_entry()>

000000000004086b <exception_entry_209>:
   4086b:	6a 00                	push   $0x0
   4086d:	68 d1 00 00 00       	push   $0xd1
   40872:	e9 fb 01 00 00       	jmp    40a72 <exception_entry()>

0000000000040877 <exception_entry_210>:
   40877:	6a 00                	push   $0x0
   40879:	68 d2 00 00 00       	push   $0xd2
   4087e:	e9 ef 01 00 00       	jmp    40a72 <exception_entry()>

0000000000040883 <exception_entry_211>:
   40883:	6a 00                	push   $0x0
   40885:	68 d3 00 00 00       	push   $0xd3
   4088a:	e9 e3 01 00 00       	jmp    40a72 <exception_entry()>

000000000004088f <exception_entry_212>:
   4088f:	6a 00                	push   $0x0
   40891:	68 d4 00 00 00       	push   $0xd4
   40896:	e9 d7 01 00 00       	jmp    40a72 <exception_entry()>

000000000004089b <exception_entry_213>:
   4089b:	6a 00                	push   $0x0
   4089d:	68 d5 00 00 00       	push   $0xd5
   408a2:	e9 cb 01 00 00       	jmp    40a72 <exception_entry()>

00000000000408a7 <exception_entry_214>:
   408a7:	6a 00                	push   $0x0
   408a9:	68 d6 00 00 00       	push   $0xd6
   408ae:	e9 bf 01 00 00       	jmp    40a72 <exception_entry()>

00000000000408b3 <exception_entry_215>:
   408b3:	6a 00                	push   $0x0
   408b5:	68 d7 00 00 00       	push   $0xd7
   408ba:	e9 b3 01 00 00       	jmp    40a72 <exception_entry()>

00000000000408bf <exception_entry_216>:
   408bf:	6a 00                	push   $0x0
   408c1:	68 d8 00 00 00       	push   $0xd8
   408c6:	e9 a7 01 00 00       	jmp    40a72 <exception_entry()>

00000000000408cb <exception_entry_217>:
   408cb:	6a 00                	push   $0x0
   408cd:	68 d9 00 00 00       	push   $0xd9
   408d2:	e9 9b 01 00 00       	jmp    40a72 <exception_entry()>

00000000000408d7 <exception_entry_218>:
   408d7:	6a 00                	push   $0x0
   408d9:	68 da 00 00 00       	push   $0xda
   408de:	e9 8f 01 00 00       	jmp    40a72 <exception_entry()>

00000000000408e3 <exception_entry_219>:
   408e3:	6a 00                	push   $0x0
   408e5:	68 db 00 00 00       	push   $0xdb
   408ea:	e9 83 01 00 00       	jmp    40a72 <exception_entry()>

00000000000408ef <exception_entry_220>:
   408ef:	6a 00                	push   $0x0
   408f1:	68 dc 00 00 00       	push   $0xdc
   408f6:	e9 77 01 00 00       	jmp    40a72 <exception_entry()>

00000000000408fb <exception_entry_221>:
   408fb:	6a 00                	push   $0x0
   408fd:	68 dd 00 00 00       	push   $0xdd
   40902:	e9 6b 01 00 00       	jmp    40a72 <exception_entry()>

0000000000040907 <exception_entry_222>:
   40907:	6a 00                	push   $0x0
   40909:	68 de 00 00 00       	push   $0xde
   4090e:	e9 5f 01 00 00       	jmp    40a72 <exception_entry()>

0000000000040913 <exception_entry_223>:
   40913:	6a 00                	push   $0x0
   40915:	68 df 00 00 00       	push   $0xdf
   4091a:	e9 53 01 00 00       	jmp    40a72 <exception_entry()>

000000000004091f <exception_entry_224>:
   4091f:	6a 00                	push   $0x0
   40921:	68 e0 00 00 00       	push   $0xe0
   40926:	e9 47 01 00 00       	jmp    40a72 <exception_entry()>

000000000004092b <exception_entry_225>:
   4092b:	6a 00                	push   $0x0
   4092d:	68 e1 00 00 00       	push   $0xe1
   40932:	e9 3b 01 00 00       	jmp    40a72 <exception_entry()>

0000000000040937 <exception_entry_226>:
   40937:	6a 00                	push   $0x0
   40939:	68 e2 00 00 00       	push   $0xe2
   4093e:	e9 2f 01 00 00       	jmp    40a72 <exception_entry()>

0000000000040943 <exception_entry_227>:
   40943:	6a 00                	push   $0x0
   40945:	68 e3 00 00 00       	push   $0xe3
   4094a:	e9 23 01 00 00       	jmp    40a72 <exception_entry()>

000000000004094f <exception_entry_228>:
   4094f:	6a 00                	push   $0x0
   40951:	68 e4 00 00 00       	push   $0xe4
   40956:	e9 17 01 00 00       	jmp    40a72 <exception_entry()>

000000000004095b <exception_entry_229>:
   4095b:	6a 00                	push   $0x0
   4095d:	68 e5 00 00 00       	push   $0xe5
   40962:	e9 0b 01 00 00       	jmp    40a72 <exception_entry()>

0000000000040967 <exception_entry_230>:
   40967:	6a 00                	push   $0x0
   40969:	68 e6 00 00 00       	push   $0xe6
   4096e:	e9 ff 00 00 00       	jmp    40a72 <exception_entry()>

0000000000040973 <exception_entry_231>:
   40973:	6a 00                	push   $0x0
   40975:	68 e7 00 00 00       	push   $0xe7
   4097a:	e9 f3 00 00 00       	jmp    40a72 <exception_entry()>

000000000004097f <exception_entry_232>:
   4097f:	6a 00                	push   $0x0
   40981:	68 e8 00 00 00       	push   $0xe8
   40986:	e9 e7 00 00 00       	jmp    40a72 <exception_entry()>

000000000004098b <exception_entry_233>:
   4098b:	6a 00                	push   $0x0
   4098d:	68 e9 00 00 00       	push   $0xe9
   40992:	e9 db 00 00 00       	jmp    40a72 <exception_entry()>

0000000000040997 <exception_entry_234>:
   40997:	6a 00                	push   $0x0
   40999:	68 ea 00 00 00       	push   $0xea
   4099e:	e9 cf 00 00 00       	jmp    40a72 <exception_entry()>

00000000000409a3 <exception_entry_235>:
   409a3:	6a 00                	push   $0x0
   409a5:	68 eb 00 00 00       	push   $0xeb
   409aa:	e9 c3 00 00 00       	jmp    40a72 <exception_entry()>

00000000000409af <exception_entry_236>:
   409af:	6a 00                	push   $0x0
   409b1:	68 ec 00 00 00       	push   $0xec
   409b6:	e9 b7 00 00 00       	jmp    40a72 <exception_entry()>

00000000000409bb <exception_entry_237>:
   409bb:	6a 00                	push   $0x0
   409bd:	68 ed 00 00 00       	push   $0xed
   409c2:	e9 ab 00 00 00       	jmp    40a72 <exception_entry()>

00000000000409c7 <exception_entry_238>:
   409c7:	6a 00                	push   $0x0
   409c9:	68 ee 00 00 00       	push   $0xee
   409ce:	e9 9f 00 00 00       	jmp    40a72 <exception_entry()>

00000000000409d3 <exception_entry_239>:
   409d3:	6a 00                	push   $0x0
   409d5:	68 ef 00 00 00       	push   $0xef
   409da:	e9 93 00 00 00       	jmp    40a72 <exception_entry()>

00000000000409df <exception_entry_240>:
   409df:	6a 00                	push   $0x0
   409e1:	68 f0 00 00 00       	push   $0xf0
   409e6:	e9 87 00 00 00       	jmp    40a72 <exception_entry()>

00000000000409eb <exception_entry_241>:
   409eb:	6a 00                	push   $0x0
   409ed:	68 f1 00 00 00       	push   $0xf1
   409f2:	eb 7e                	jmp    40a72 <exception_entry()>

00000000000409f4 <exception_entry_242>:
   409f4:	6a 00                	push   $0x0
   409f6:	68 f2 00 00 00       	push   $0xf2
   409fb:	eb 75                	jmp    40a72 <exception_entry()>

00000000000409fd <exception_entry_243>:
   409fd:	6a 00                	push   $0x0
   409ff:	68 f3 00 00 00       	push   $0xf3
   40a04:	eb 6c                	jmp    40a72 <exception_entry()>

0000000000040a06 <exception_entry_244>:
   40a06:	6a 00                	push   $0x0
   40a08:	68 f4 00 00 00       	push   $0xf4
   40a0d:	eb 63                	jmp    40a72 <exception_entry()>

0000000000040a0f <exception_entry_245>:
   40a0f:	6a 00                	push   $0x0
   40a11:	68 f5 00 00 00       	push   $0xf5
   40a16:	eb 5a                	jmp    40a72 <exception_entry()>

0000000000040a18 <exception_entry_246>:
   40a18:	6a 00                	push   $0x0
   40a1a:	68 f6 00 00 00       	push   $0xf6
   40a1f:	eb 51                	jmp    40a72 <exception_entry()>

0000000000040a21 <exception_entry_247>:
   40a21:	6a 00                	push   $0x0
   40a23:	68 f7 00 00 00       	push   $0xf7
   40a28:	eb 48                	jmp    40a72 <exception_entry()>

0000000000040a2a <exception_entry_248>:
   40a2a:	6a 00                	push   $0x0
   40a2c:	68 f8 00 00 00       	push   $0xf8
   40a31:	eb 3f                	jmp    40a72 <exception_entry()>

0000000000040a33 <exception_entry_249>:
   40a33:	6a 00                	push   $0x0
   40a35:	68 f9 00 00 00       	push   $0xf9
   40a3a:	eb 36                	jmp    40a72 <exception_entry()>

0000000000040a3c <exception_entry_250>:
   40a3c:	6a 00                	push   $0x0
   40a3e:	68 fa 00 00 00       	push   $0xfa
   40a43:	eb 2d                	jmp    40a72 <exception_entry()>

0000000000040a45 <exception_entry_251>:
   40a45:	6a 00                	push   $0x0
   40a47:	68 fb 00 00 00       	push   $0xfb
   40a4c:	eb 24                	jmp    40a72 <exception_entry()>

0000000000040a4e <exception_entry_252>:
   40a4e:	6a 00                	push   $0x0
   40a50:	68 fc 00 00 00       	push   $0xfc
   40a55:	eb 1b                	jmp    40a72 <exception_entry()>

0000000000040a57 <exception_entry_253>:
   40a57:	6a 00                	push   $0x0
   40a59:	68 fd 00 00 00       	push   $0xfd
   40a5e:	eb 12                	jmp    40a72 <exception_entry()>

0000000000040a60 <exception_entry_254>:
   40a60:	6a 00                	push   $0x0
   40a62:	68 fe 00 00 00       	push   $0xfe
   40a67:	eb 09                	jmp    40a72 <exception_entry()>

0000000000040a69 <exception_entry_255>:
   40a69:	6a 00                	push   $0x0
   40a6b:	68 ff 00 00 00       	push   $0xff
   40a70:	eb 00                	jmp    40a72 <exception_entry()>

0000000000040a72 <exception_entry()>:
   40a72:	0f a8                	push   %gs
   40a74:	0f a0                	push   %fs
   40a76:	41 57                	push   %r15
   40a78:	41 56                	push   %r14
   40a7a:	41 55                	push   %r13
   40a7c:	41 54                	push   %r12
   40a7e:	41 53                	push   %r11
   40a80:	41 52                	push   %r10
   40a82:	41 51                	push   %r9
   40a84:	41 50                	push   %r8
   40a86:	57                   	push   %rdi
   40a87:	56                   	push   %rsi
   40a88:	55                   	push   %rbp
   40a89:	53                   	push   %rbx
   40a8a:	52                   	push   %rdx
   40a8b:	51                   	push   %rcx
   40a8c:	50                   	push   %rax
   40a8d:	48 89 e7             	mov    %rsp,%rdi
   40a90:	48 c7 c0 00 60 06 00 	mov    $0x66000,%rax
   40a97:	0f 22 d8             	mov    %rax,%cr3
   40a9a:	e8 4f 15 00 00       	call   41fee <exception(regstate*)>

0000000000040a9f <exception_return(proc*)>:
   40a9f:	8b 47 0c             	mov    0xc(%rdi),%eax
   40aa2:	83 f8 01             	cmp    $0x1,%eax
   40aa5:	0f 85 a4 00 00 00    	jne    40b4f <proc_runnable_fail>
   40aab:	48 8b 07             	mov    (%rdi),%rax
   40aae:	0f 22 d8             	mov    %rax,%cr3
   40ab1:	48 8d 67 10          	lea    0x10(%rdi),%rsp
   40ab5:	58                   	pop    %rax
   40ab6:	59                   	pop    %rcx
   40ab7:	5a                   	pop    %rdx
   40ab8:	5b                   	pop    %rbx
   40ab9:	5d                   	pop    %rbp
   40aba:	5e                   	pop    %rsi
   40abb:	5f                   	pop    %rdi
   40abc:	41 58                	pop    %r8
   40abe:	41 59                	pop    %r9
   40ac0:	41 5a                	pop    %r10
   40ac2:	41 5b                	pop    %r11
   40ac4:	41 5c                	pop    %r12
   40ac6:	41 5d                	pop    %r13
   40ac8:	41 5e                	pop    %r14
   40aca:	41 5f                	pop    %r15
   40acc:	0f a1                	pop    %fs
   40ace:	0f a9                	pop    %gs
   40ad0:	48 83 c4 10          	add    $0x10,%rsp
   40ad4:	48 cf                	iretq

0000000000040ad6 <syscall_entry()>:
   40ad6:	48 89 24 25 f0 ff 07 	mov    %rsp,0x7fff0
   40add:	00 
   40ade:	48 c7 c4 00 00 08 00 	mov    $0x80000,%rsp
   40ae5:	6a 23                	push   $0x23
   40ae7:	48 83 ec 08          	sub    $0x8,%rsp
   40aeb:	41 53                	push   %r11
   40aed:	6a 1b                	push   $0x1b
   40aef:	51                   	push   %rcx
   40af0:	48 83 ec 08          	sub    $0x8,%rsp
   40af4:	6a ff                	push   $0xffffffffffffffff
   40af6:	0f a8                	push   %gs
   40af8:	0f a0                	push   %fs
   40afa:	41 57                	push   %r15
   40afc:	41 56                	push   %r14
   40afe:	41 55                	push   %r13
   40b00:	41 54                	push   %r12
   40b02:	48 83 ec 08          	sub    $0x8,%rsp
   40b06:	41 52                	push   %r10
   40b08:	41 51                	push   %r9
   40b0a:	41 50                	push   %r8
   40b0c:	57                   	push   %rdi
   40b0d:	56                   	push   %rsi
   40b0e:	55                   	push   %rbp
   40b0f:	53                   	push   %rbx
   40b10:	52                   	push   %rdx
   40b11:	48 83 ec 08          	sub    $0x8,%rsp
   40b15:	50                   	push   %rax
   40b16:	48 c7 c0 00 60 06 00 	mov    $0x66000,%rax
   40b1d:	0f 22 d8             	mov    %rax,%cr3
   40b20:	48 89 e7             	mov    %rsp,%rdi
   40b23:	e8 74 16 00 00       	call   4219c <syscall(regstate*)>
   40b28:	48 8b 0c 25 00 42 06 	mov    0x64200,%rcx
   40b2f:	00 
   40b30:	8b 49 0c             	mov    0xc(%rcx),%ecx
   40b33:	83 f9 01             	cmp    $0x1,%ecx
   40b36:	75 17                	jne    40b4f <proc_runnable_fail>
   40b38:	48 8b 0c 25 00 42 06 	mov    0x64200,%rcx
   40b3f:	00 
   40b40:	48 8b 09             	mov    (%rcx),%rcx
   40b43:	0f 22 d9             	mov    %rcx,%cr3
   40b46:	48 81 c4 98 00 00 00 	add    $0x98,%rsp
   40b4d:	48 cf                	iretq

0000000000040b4f <proc_runnable_fail>:
   40b4f:	31 c9                	xor    %ecx,%ecx
   40b51:	48 c7 c2 ce 5e 04 00 	mov    $0x45ece,%rdx
   40b58:	31 f6                	xor    %esi,%esi
   40b5a:	48 c7 c7 c0 5e 04 00 	mov    $0x45ec0,%rdi
   40b61:	e8 57 2b 00 00       	call   436bd <assert_fail(char const*, int, char const*, char const*)>

0000000000040b66 <kalloc(unsigned long)>:
//
//    The returned memory is initially filled with 0xCC, which corresponds to
//    the `int3` instruction. Executing that instruction will cause a `PANIC:
//    Unhandled exception 3!` This may help you debug.

void* kalloc(size_t sz) {
   40b66:	f3 0f 1e fa          	endbr64
   40b6a:	55                   	push   %rbp
   40b6b:	48 89 e5             	mov    %rsp,%rbp
   40b6e:	41 55                	push   %r13
   40b70:	41 54                	push   %r12
   40b72:	53                   	push   %rbx
   40b73:	48 83 ec 08          	sub    $0x8,%rsp
    // failing allocation depending on size
    if (sz > PAGESIZE) {
   40b77:	48 81 ff 00 10 00 00 	cmp    $0x1000,%rdi
   40b7e:	77 6c                	ja     40bec <kalloc(unsigned long)+0x86>
   40b80:	41 bd 00 02 00 00    	mov    $0x200,%r13d
        return nullptr;
    }

    int pageno = 0;
   40b86:	bb 00 00 00 00       	mov    $0x0,%ebx
   40b8b:	eb 0f                	jmp    40b9c <kalloc(unsigned long)+0x36>
            && physpages[pageno].refcount == 0) {
            ++physpages[pageno].refcount;
            memset((void*) pa, 0xCC, PAGESIZE);
            return (void*) pa;
        }
        pageno = (pageno + page_increment) % NPAGES;
   40b8d:	83 c3 01             	add    $0x1,%ebx
   40b90:	81 e3 ff 01 00 00    	and    $0x1ff,%ebx
    for (int tries = 0; tries != NPAGES; ++tries) {
   40b96:	41 83 ed 01          	sub    $0x1,%r13d
   40b9a:	74 49                	je     40be5 <kalloc(unsigned long)+0x7f>
        uintptr_t pa = pageno * PAGESIZE;
   40b9c:	4c 63 e3             	movslq %ebx,%r12
   40b9f:	49 c1 e4 0c          	shl    $0xc,%r12
        if (allocatable_physical_address(pa)
   40ba3:	4c 89 e7             	mov    %r12,%rdi
   40ba6:	e8 ad 1e 00 00       	call   42a58 <allocatable_physical_address(unsigned long)>
            && physpages[pageno].refcount == 0) {
   40bab:	84 c0                	test   %al,%al
   40bad:	74 de                	je     40b8d <kalloc(unsigned long)+0x27>
   40baf:	48 63 c3             	movslq %ebx,%rax
   40bb2:	80 b8 00 40 06 00 00 	cmpb   $0x0,0x64000(%rax)
   40bb9:	75 d2                	jne    40b8d <kalloc(unsigned long)+0x27>
            ++physpages[pageno].refcount;
   40bbb:	c6 80 00 40 06 00 01 	movb   $0x1,0x64000(%rax)
            memset((void*) pa, 0xCC, PAGESIZE);
   40bc2:	4c 89 e3             	mov    %r12,%rbx
   40bc5:	ba 00 10 00 00       	mov    $0x1000,%edx
   40bca:	be cc 00 00 00       	mov    $0xcc,%esi
   40bcf:	4c 89 e7             	mov    %r12,%rdi
   40bd2:	e8 db 45 00 00       	call   451b2 <memset>
    }

    return nullptr;
}
   40bd7:	48 89 d8             	mov    %rbx,%rax
   40bda:	48 83 c4 08          	add    $0x8,%rsp
   40bde:	5b                   	pop    %rbx
   40bdf:	41 5c                	pop    %r12
   40be1:	41 5d                	pop    %r13
   40be3:	5d                   	pop    %rbp
   40be4:	c3                   	ret
    return nullptr;
   40be5:	bb 00 00 00 00       	mov    $0x0,%ebx
   40bea:	eb eb                	jmp    40bd7 <kalloc(unsigned long)+0x71>
        return nullptr;
   40bec:	bb 00 00 00 00       	mov    $0x0,%ebx
   40bf1:	eb e4                	jmp    40bd7 <kalloc(unsigned long)+0x71>

0000000000040bf3 <kfree(void*)>:

// kfree(kptr)
//    Free `kptr`, which must have been previously returned by `kalloc`.
//    If `kptr == nullptr` does nothing.

void kfree(void* kptr) {
   40bf3:	f3 0f 1e fa          	endbr64
    (void) kptr;

    if (kptr == nullptr) {
   40bf7:	48 85 ff             	test   %rdi,%rdi
   40bfa:	74 20                	je     40c1c <kfree(void*)+0x29>
        return;
    }

    uintptr_t pa = (uintptr_t)kptr;
    assert(pa % PAGESIZE == 0);
   40bfc:	f7 c7 ff 0f 00 00    	test   $0xfff,%edi
   40c02:	75 19                	jne    40c1d <kfree(void*)+0x2a>

    // calculating page number
    uintptr_t pageno = pa / PAGESIZE;
   40c04:	48 c1 ef 0c          	shr    $0xc,%rdi

    if (physpages[pageno].refcount > 0) {
   40c08:	0f b6 87 00 40 06 00 	movzbl 0x64000(%rdi),%eax
   40c0f:	84 c0                	test   %al,%al
   40c11:	74 09                	je     40c1c <kfree(void*)+0x29>
        --physpages[pageno].refcount;
   40c13:	83 e8 01             	sub    $0x1,%eax
   40c16:	88 87 00 40 06 00    	mov    %al,0x64000(%rdi)
   40c1c:	c3                   	ret
void kfree(void* kptr) {
   40c1d:	55                   	push   %rbp
   40c1e:	48 89 e5             	mov    %rsp,%rbp
    assert(pa % PAGESIZE == 0);
   40c21:	b9 00 00 00 00       	mov    $0x0,%ecx
   40c26:	ba eb 5e 04 00       	mov    $0x45eeb,%edx
   40c2b:	be 9e 00 00 00       	mov    $0x9e,%esi
   40c30:	bf fe 5e 04 00       	mov    $0x45efe,%edi
   40c35:	e8 83 2a 00 00       	call   436bd <assert_fail(char const*, int, char const*, char const*)>

0000000000040c3a <copy_mappings(x86_64_pagetable*, x86_64_pagetable*, unsigned long)>:
// process_setup(pid, program_name)
//    Load application program `program_name` as process number `pid`.
//    This loads the application's code and data into memory, sets its
//    %rip and %rsp, gives it a stack page, and marks it as runnable.

void copy_mappings(x86_64_pagetable* dst, x86_64_pagetable* src, uintptr_t MAX_ADDR) {
   40c3a:	f3 0f 1e fa          	endbr64
   40c3e:	55                   	push   %rbp
   40c3f:	48 89 e5             	mov    %rsp,%rbp
   40c42:	41 56                	push   %r14
   40c44:	41 55                	push   %r13
   40c46:	41 54                	push   %r12
   40c48:	53                   	push   %rbx
   40c49:	48 83 ec 40          	sub    $0x40,%rsp
   40c4d:	48 89 fb             	mov    %rdi,%rbx
   40c50:	49 89 d5             	mov    %rdx,%r13
    void down(bool skip);
};


inline vmiter::vmiter(x86_64_pagetable* pt, uintptr_t va)
    : pt_(pt), pep_(&pt_->entry[0]), lbits_(initial_lbits),
   40c53:	48 89 75 c0          	mov    %rsi,-0x40(%rbp)
   40c57:	48 89 75 c8          	mov    %rsi,-0x38(%rbp)
   40c5b:	c7 45 d0 27 00 00 00 	movl   $0x27,-0x30(%rbp)
      perm_(initial_perm), va_(0) {
   40c62:	c7 45 d4 ff 0f 00 00 	movl   $0xfff,-0x2c(%rbp)
   40c69:	48 c7 45 d8 00 00 00 	movq   $0x0,-0x28(%rbp)
   40c70:	00 
    real_find(va, false);
   40c71:	ba 00 00 00 00       	mov    $0x0,%edx
   40c76:	be 00 00 00 00       	mov    $0x0,%esi
   40c7b:	48 8d 7d c0          	lea    -0x40(%rbp),%rdi
   40c7f:	e8 a2 16 00 00       	call   42326 <vmiter::real_find(unsigned long, bool)>
    : pt_(pt), pep_(&pt_->entry[0]), lbits_(initial_lbits),
   40c84:	48 89 5d a0          	mov    %rbx,-0x60(%rbp)
   40c88:	48 89 5d a8          	mov    %rbx,-0x58(%rbp)
   40c8c:	c7 45 b0 27 00 00 00 	movl   $0x27,-0x50(%rbp)
      perm_(initial_perm), va_(0) {
   40c93:	c7 45 b4 ff 0f 00 00 	movl   $0xfff,-0x4c(%rbp)
   40c9a:	48 c7 45 b8 00 00 00 	movq   $0x0,-0x48(%rbp)
   40ca1:	00 
    real_find(va, false);
   40ca2:	ba 00 00 00 00       	mov    $0x0,%edx
   40ca7:	be 00 00 00 00       	mov    $0x0,%esi
   40cac:	48 8d 7d a0          	lea    -0x60(%rbp),%rdi
   40cb0:	e8 71 16 00 00       	call   42326 <vmiter::real_find(unsigned long, bool)>
}
inline x86_64_pagetable* vmiter::pagetable() const {
    return pt_;
}
inline uintptr_t vmiter::va() const {
    return va_;
   40cb5:	48 8b 7d d8          	mov    -0x28(%rbp),%rdi
    vmiter srcit(src, 0);
    vmiter dstit(dst, 0);
    for (; srcit.va() < MAX_ADDR; srcit += PAGESIZE, dstit += PAGESIZE) {
   40cb9:	4c 39 ef             	cmp    %r13,%rdi
   40cbc:	0f 83 cc 00 00 00    	jae    40d8e <copy_mappings(x86_64_pagetable*, x86_64_pagetable*, unsigned long)+0x154>
        if (lbits_ > PAGEOFFBITS) {
            pa &= ~0x1000UL;
        }
        return pa + (va_ & lbits_mask(lbits_));
    } else {
        return -1;
   40cc2:	48 c7 c3 ff ff ff ff 	mov    $0xffffffffffffffff,%rbx
            pa &= ~0x1000UL;
   40cc9:	49 bc 00 e0 ff ff ff 	movabs $0xfffffffffe000,%r12
   40cd0:	ff 0f 00 
        uintptr_t pa = *pep_ & PTE_PAMASK;
   40cd3:	49 be 00 f0 ff ff ff 	movabs $0xffffffffff000,%r14
   40cda:	ff 0f 00 
   40cdd:	eb 4c                	jmp    40d2b <copy_mappings(x86_64_pagetable*, x86_64_pagetable*, unsigned long)+0xf1>
}
inline void vmiter::next_range() {
    real_find(last_va(), true);
}
inline void vmiter::map(uintptr_t pa, int perm) {
    int r = try_map(pa, perm);
   40cdf:	48 8d 7d a0          	lea    -0x60(%rbp),%rdi
   40ce3:	e8 70 17 00 00       	call   42458 <vmiter::try_map(unsigned long, int)>
    assert(r == 0, "vmiter::map failed");
   40ce8:	85 c0                	test   %eax,%eax
   40cea:	0f 85 85 00 00 00    	jne    40d75 <copy_mappings(x86_64_pagetable*, x86_64_pagetable*, unsigned long)+0x13b>
    return find(va_ + delta);
   40cf0:	48 8b 45 d8          	mov    -0x28(%rbp),%rax
   40cf4:	48 8d b0 00 10 00 00 	lea    0x1000(%rax),%rsi
        real_find(va, false);
   40cfb:	ba 00 00 00 00       	mov    $0x0,%edx
   40d00:	48 8d 7d c0          	lea    -0x40(%rbp),%rdi
   40d04:	e8 1d 16 00 00       	call   42326 <vmiter::real_find(unsigned long, bool)>
    return find(va_ + delta);
   40d09:	48 8b 45 b8          	mov    -0x48(%rbp),%rax
   40d0d:	48 8d b0 00 10 00 00 	lea    0x1000(%rax),%rsi
        real_find(va, false);
   40d14:	ba 00 00 00 00       	mov    $0x0,%edx
   40d19:	48 8d 7d a0          	lea    -0x60(%rbp),%rdi
   40d1d:	e8 04 16 00 00       	call   42326 <vmiter::real_find(unsigned long, bool)>
    return va_;
   40d22:	48 8b 7d d8          	mov    -0x28(%rbp),%rdi
   40d26:	4c 39 ef             	cmp    %r13,%rdi
   40d29:	73 63                	jae    40d8e <copy_mappings(x86_64_pagetable*, x86_64_pagetable*, unsigned long)+0x154>
    uint64_t ph = *pep_ & perm_;
   40d2b:	48 8b 45 c8          	mov    -0x38(%rbp),%rax
   40d2f:	48 8b 00             	mov    (%rax),%rax
   40d32:	48 63 4d d4          	movslq -0x2c(%rbp),%rcx
   40d36:	48 21 c1             	and    %rax,%rcx
    return ph & -(ph & PTE_P);
   40d39:	48 89 ca             	mov    %rcx,%rdx
   40d3c:	83 e2 01             	and    $0x1,%edx
   40d3f:	48 f7 da             	neg    %rdx
        dstit.map(srcit.pa(), srcit.perm());
   40d42:	21 ca                	and    %ecx,%edx
        return -1;
   40d44:	48 89 de             	mov    %rbx,%rsi
    if (*pep_ & PTE_P) {
   40d47:	a8 01                	test   $0x1,%al
   40d49:	74 94                	je     40cdf <copy_mappings(x86_64_pagetable*, x86_64_pagetable*, unsigned long)+0xa5>
        if (lbits_ > PAGEOFFBITS) {
   40d4b:	8b 4d d0             	mov    -0x30(%rbp),%ecx
            pa &= ~0x1000UL;
   40d4e:	48 89 c6             	mov    %rax,%rsi
   40d51:	4c 21 e6             	and    %r12,%rsi
        uintptr_t pa = *pep_ & PTE_PAMASK;
   40d54:	49 89 c0             	mov    %rax,%r8
   40d57:	4d 21 f0             	and    %r14,%r8
   40d5a:	83 f9 0c             	cmp    $0xc,%ecx
   40d5d:	4c 0f 4f c6          	cmovg  %rsi,%r8
    return ~(~uintptr_t(0) << lbits);
   40d61:	48 89 de             	mov    %rbx,%rsi
   40d64:	48 d3 e6             	shl    %cl,%rsi
   40d67:	48 f7 d6             	not    %rsi
        return pa + (va_ & lbits_mask(lbits_));
   40d6a:	48 21 fe             	and    %rdi,%rsi
   40d6d:	4c 01 c6             	add    %r8,%rsi
   40d70:	e9 6a ff ff ff       	jmp    40cdf <copy_mappings(x86_64_pagetable*, x86_64_pagetable*, unsigned long)+0xa5>
    assert(r == 0, "vmiter::map failed");
   40d75:	b9 08 5f 04 00       	mov    $0x45f08,%ecx
   40d7a:	ba 1b 5f 04 00       	mov    $0x45f1b,%edx
   40d7f:	be 10 01 00 00       	mov    $0x110,%esi
   40d84:	bf 22 5f 04 00       	mov    $0x45f22,%edi
   40d89:	e8 2f 29 00 00       	call   436bd <assert_fail(char const*, int, char const*, char const*)>
    }
}
   40d8e:	48 83 c4 40          	add    $0x40,%rsp
   40d92:	5b                   	pop    %rbx
   40d93:	41 5c                	pop    %r12
   40d95:	41 5d                	pop    %r13
   40d97:	41 5e                	pop    %r14
   40d99:	5d                   	pop    %rbp
   40d9a:	c3                   	ret

0000000000040d9b <process_setup(int, char const*)>:

void process_setup(pid_t pid, const char* program_name) {
   40d9b:	55                   	push   %rbp
   40d9c:	48 89 e5             	mov    %rsp,%rbp
   40d9f:	41 57                	push   %r15
   40da1:	41 56                	push   %r14
   40da3:	41 55                	push   %r13
   40da5:	41 54                	push   %r12
   40da7:	53                   	push   %rbx
   40da8:	48 81 ec 88 00 00 00 	sub    $0x88,%rsp
   40daf:	41 89 ff             	mov    %edi,%r15d
   40db2:	89 bd 54 ff ff ff    	mov    %edi,-0xac(%rbp)
   40db8:	49 89 f4             	mov    %rsi,%r12
    init_process(&ptable[pid], 0);
   40dbb:	48 63 c7             	movslq %edi,%rax
   40dbe:	48 8d 1c 40          	lea    (%rax,%rax,2),%rbx
   40dc2:	4c 8d 2c dd 00 00 00 	lea    0x0(,%rbx,8),%r13
   40dc9:	00 
   40dca:	4a 8d 04 2b          	lea    (%rbx,%r13,1),%rax
   40dce:	48 8d 3c c5 20 42 06 	lea    0x64220(,%rax,8),%rdi
   40dd5:	00 
   40dd6:	be 00 00 00 00       	mov    $0x0,%esi
   40ddb:	e8 d2 1c 00 00       	call   42ab2 <init_process(proc*, int)>

    // initialize process page table
    ptable[pid].pagetable = kalloc_pagetable();
   40de0:	e8 18 1c 00 00       	call   429fd <kalloc_pagetable()>
   40de5:	48 89 c7             	mov    %rax,%rdi
   40de8:	4c 01 eb             	add    %r13,%rbx
   40deb:	48 89 04 dd 20 42 06 	mov    %rax,0x64220(,%rbx,8)
   40df2:	00 

    copy_mappings(ptable[pid].pagetable, kernel_pagetable, PROC_START_ADDR);
   40df3:	ba 00 00 10 00       	mov    $0x100000,%edx
   40df8:	be 00 60 06 00       	mov    $0x66000,%esi
   40dfd:	e8 38 fe ff ff       	call   40c3a <copy_mappings(x86_64_pagetable*, x86_64_pagetable*, unsigned long)>

    // obtain reference to program image
    // (The program image models the process executable.)
    //program_image pgm(program_name);
    program_image pgm(program_name);
   40e02:	4c 89 e6             	mov    %r12,%rsi
   40e05:	48 8d 7d 98          	lea    -0x68(%rbp),%rdi
   40e09:	e8 d6 35 00 00       	call   443e4 <program_image::program_image(char const*)>
    // allocate and map process memory as specified in program image
    for (auto seg = pgm.begin(); seg != pgm.end(); ++seg) {
   40e0e:	48 8d 7d 98          	lea    -0x68(%rbp),%rdi
   40e12:	e8 67 36 00 00       	call   4447e <program_image::begin() const>
   40e17:	48 89 85 68 ff ff ff 	mov    %rax,-0x98(%rbp)
   40e1e:	48 89 95 70 ff ff ff 	mov    %rdx,-0x90(%rbp)
            // allocating memory
            uintptr_t page = (uintptr_t) kalloc(PAGESIZE);
            assert(page != 0);

            // map memory
            int r = vmiter(ptable[pid].pagetable, a).try_map(page, PTE_P | PTE_W | PTE_U);
   40e25:	49 63 c7             	movslq %r15d,%rax
   40e28:	4c 8d 2c 40          	lea    (%rax,%rax,2),%r13
   40e2c:	4e 8d 34 ed 00 00 00 	lea    0x0(,%r13,8),%r14
   40e33:	00 
    for (auto seg = pgm.begin(); seg != pgm.end(); ++seg) {
   40e34:	e9 ae 00 00 00       	jmp    40ee7 <process_setup(int, char const*)+0x14c>
            uintptr_t page = (uintptr_t) kalloc(PAGESIZE);
   40e39:	bf 00 10 00 00       	mov    $0x1000,%edi
   40e3e:	e8 23 fd ff ff       	call   40b66 <kalloc(unsigned long)>
   40e43:	48 89 c3             	mov    %rax,%rbx
            assert(page != 0);
   40e46:	48 85 c0             	test   %rax,%rax
   40e49:	0f 84 d4 00 00 00    	je     40f23 <process_setup(int, char const*)+0x188>
            int r = vmiter(ptable[pid].pagetable, a).try_map(page, PTE_P | PTE_W | PTE_U);
   40e4f:	4b 8d 44 35 00       	lea    0x0(%r13,%r14,1),%rax
   40e54:	48 8b 04 c5 20 42 06 	mov    0x64220(,%rax,8),%rax
   40e5b:	00 
    : pt_(pt), pep_(&pt_->entry[0]), lbits_(initial_lbits),
   40e5c:	48 89 85 78 ff ff ff 	mov    %rax,-0x88(%rbp)
   40e63:	48 89 45 80          	mov    %rax,-0x80(%rbp)
   40e67:	c7 45 88 27 00 00 00 	movl   $0x27,-0x78(%rbp)
      perm_(initial_perm), va_(0) {
   40e6e:	c7 45 8c ff 0f 00 00 	movl   $0xfff,-0x74(%rbp)
   40e75:	48 c7 45 90 00 00 00 	movq   $0x0,-0x70(%rbp)
   40e7c:	00 
    real_find(va, false);
   40e7d:	ba 00 00 00 00       	mov    $0x0,%edx
   40e82:	4c 89 e6             	mov    %r12,%rsi
   40e85:	48 8d bd 78 ff ff ff 	lea    -0x88(%rbp),%rdi
   40e8c:	e8 95 14 00 00       	call   42326 <vmiter::real_find(unsigned long, bool)>
   40e91:	ba 07 00 00 00       	mov    $0x7,%edx
   40e96:	48 89 de             	mov    %rbx,%rsi
   40e99:	48 8d bd 78 ff ff ff 	lea    -0x88(%rbp),%rdi
   40ea0:	e8 b3 15 00 00       	call   42458 <vmiter::try_map(unsigned long, int)>
            assert(r == 0);
   40ea5:	85 c0                	test   %eax,%eax
   40ea7:	0f 85 8f 00 00 00    	jne    40f3c <process_setup(int, char const*)+0x1a1>
             a += PAGESIZE) {
   40ead:	49 81 c4 00 10 00 00 	add    $0x1000,%r12
             a < seg.va() + seg.size();
   40eb4:	48 8d bd 68 ff ff ff 	lea    -0x98(%rbp),%rdi
   40ebb:	e8 36 36 00 00       	call   444f6 <program_image_segment::va() const>
   40ec0:	48 89 c3             	mov    %rax,%rbx
   40ec3:	48 8d bd 68 ff ff ff 	lea    -0x98(%rbp),%rdi
   40eca:	e8 33 36 00 00       	call   44502 <program_image_segment::size() const>
   40ecf:	48 01 c3             	add    %rax,%rbx
   40ed2:	49 39 dc             	cmp    %rbx,%r12
   40ed5:	0f 82 5e ff ff ff    	jb     40e39 <process_setup(int, char const*)+0x9e>
    for (auto seg = pgm.begin(); seg != pgm.end(); ++seg) {
   40edb:	48 8d bd 68 ff ff ff 	lea    -0x98(%rbp),%rdi
   40ee2:	e8 61 36 00 00       	call   44548 <program_image_segment::operator++()>
   40ee7:	48 8d 7d 98          	lea    -0x68(%rbp),%rdi
   40eeb:	e8 c2 35 00 00       	call   444b2 <program_image::end() const>
   40ef0:	48 89 45 a0          	mov    %rax,-0x60(%rbp)
   40ef4:	48 89 55 a8          	mov    %rdx,-0x58(%rbp)
   40ef8:	48 8d 75 a0          	lea    -0x60(%rbp),%rsi
   40efc:	48 8d bd 68 ff ff ff 	lea    -0x98(%rbp),%rdi
   40f03:	e8 32 36 00 00       	call   4453a <program_image_segment::operator!=(program_image_segment const&) const>
   40f08:	84 c0                	test   %al,%al
   40f0a:	74 49                	je     40f55 <process_setup(int, char const*)+0x1ba>
        for (uintptr_t a = round_down(seg.va(), PAGESIZE);
   40f0c:	48 8d bd 68 ff ff ff 	lea    -0x98(%rbp),%rdi
   40f13:	e8 de 35 00 00       	call   444f6 <program_image_segment::va() const>
   40f18:	48 25 00 f0 ff ff    	and    $0xfffffffffffff000,%rax
   40f1e:	49 89 c4             	mov    %rax,%r12
   40f21:	eb 91                	jmp    40eb4 <process_setup(int, char const*)+0x119>
            assert(page != 0);
   40f23:	b9 00 00 00 00       	mov    $0x0,%ecx
   40f28:	ba 2e 5f 04 00       	mov    $0x45f2e,%edx
   40f2d:	be ca 00 00 00       	mov    $0xca,%esi
   40f32:	bf fe 5e 04 00       	mov    $0x45efe,%edi
   40f37:	e8 81 27 00 00       	call   436bd <assert_fail(char const*, int, char const*, char const*)>
            assert(r == 0);
   40f3c:	b9 00 00 00 00       	mov    $0x0,%ecx
   40f41:	ba 1b 5f 04 00       	mov    $0x45f1b,%edx
   40f46:	be ce 00 00 00       	mov    $0xce,%esi
   40f4b:	bf fe 5e 04 00       	mov    $0x45efe,%edi
   40f50:	e8 68 27 00 00       	call   436bd <assert_fail(char const*, int, char const*, char const*)>
        }
    }

    // copy instructions and data from program image into process memory
    for (auto seg = pgm.begin(); seg != pgm.end(); ++seg) {
   40f55:	48 8d 7d 98          	lea    -0x68(%rbp),%rdi
   40f59:	e8 20 35 00 00       	call   4447e <program_image::begin() const>
   40f5e:	48 89 85 68 ff ff ff 	mov    %rax,-0x98(%rbp)
   40f65:	48 89 95 70 ff ff ff 	mov    %rdx,-0x90(%rbp)
        uintptr_t pa = vmiter(ptable[pid].pagetable, seg.va()).pa();
   40f6c:	48 63 85 54 ff ff ff 	movslq -0xac(%rbp),%rax
   40f73:	4c 8d 24 40          	lea    (%rax,%rax,2),%r12
   40f77:	4e 8d 2c e5 00 00 00 	lea    0x0(,%r12,8),%r13
   40f7e:	00 
    for (auto seg = pgm.begin(); seg != pgm.end(); ++seg) {
   40f7f:	eb 65                	jmp    40fe6 <process_setup(int, char const*)+0x24b>
    return ~(~uintptr_t(0) << lbits);
   40f81:	48 c7 c3 ff ff ff ff 	mov    $0xffffffffffffffff,%rbx
   40f88:	48 d3 e3             	shl    %cl,%rbx
   40f8b:	48 f7 d3             	not    %rbx
        return pa + (va_ & lbits_mask(lbits_));
   40f8e:	48 23 5d 90          	and    -0x70(%rbp),%rbx
   40f92:	48 01 c3             	add    %rax,%rbx
        memset((void*) pa, 0, seg.size());
   40f95:	48 8d bd 68 ff ff ff 	lea    -0x98(%rbp),%rdi
   40f9c:	e8 61 35 00 00       	call   44502 <program_image_segment::size() const>
   40fa1:	48 89 c2             	mov    %rax,%rdx
   40fa4:	be 00 00 00 00       	mov    $0x0,%esi
   40fa9:	48 89 df             	mov    %rbx,%rdi
   40fac:	e8 01 42 00 00       	call   451b2 <memset>
        memcpy((void*) pa, seg.data(), seg.data_size());
   40fb1:	48 8d bd 68 ff ff ff 	lea    -0x98(%rbp),%rdi
   40fb8:	e8 61 35 00 00       	call   4451e <program_image_segment::data_size() const>
   40fbd:	49 89 c6             	mov    %rax,%r14
   40fc0:	48 8d bd 68 ff ff ff 	lea    -0x98(%rbp),%rdi
   40fc7:	e8 42 35 00 00       	call   4450e <program_image_segment::data() const>
   40fcc:	48 89 c6             	mov    %rax,%rsi
   40fcf:	4c 89 f2             	mov    %r14,%rdx
   40fd2:	48 89 df             	mov    %rbx,%rdi
   40fd5:	e8 b4 41 00 00       	call   4518e <memcpy>
    for (auto seg = pgm.begin(); seg != pgm.end(); ++seg) {
   40fda:	48 8d bd 68 ff ff ff 	lea    -0x98(%rbp),%rdi
   40fe1:	e8 62 35 00 00       	call   44548 <program_image_segment::operator++()>
   40fe6:	48 8d 7d 98          	lea    -0x68(%rbp),%rdi
   40fea:	e8 c3 34 00 00       	call   444b2 <program_image::end() const>
   40fef:	48 89 45 b0          	mov    %rax,-0x50(%rbp)
   40ff3:	48 89 55 b8          	mov    %rdx,-0x48(%rbp)
   40ff7:	48 8d 75 b0          	lea    -0x50(%rbp),%rsi
   40ffb:	48 8d bd 68 ff ff ff 	lea    -0x98(%rbp),%rdi
   41002:	e8 33 35 00 00       	call   4453a <program_image_segment::operator!=(program_image_segment const&) const>
   41007:	84 c0                	test   %al,%al
   41009:	0f 84 8f 00 00 00    	je     4109e <process_setup(int, char const*)+0x303>
        uintptr_t pa = vmiter(ptable[pid].pagetable, seg.va()).pa();
   4100f:	48 8d bd 68 ff ff ff 	lea    -0x98(%rbp),%rdi
   41016:	e8 db 34 00 00       	call   444f6 <program_image_segment::va() const>
   4101b:	48 89 c6             	mov    %rax,%rsi
   4101e:	4b 8d 04 2c          	lea    (%r12,%r13,1),%rax
   41022:	48 8b 04 c5 20 42 06 	mov    0x64220(,%rax,8),%rax
   41029:	00 
    : pt_(pt), pep_(&pt_->entry[0]), lbits_(initial_lbits),
   4102a:	48 89 85 78 ff ff ff 	mov    %rax,-0x88(%rbp)
   41031:	48 89 45 80          	mov    %rax,-0x80(%rbp)
   41035:	c7 45 88 27 00 00 00 	movl   $0x27,-0x78(%rbp)
      perm_(initial_perm), va_(0) {
   4103c:	c7 45 8c ff 0f 00 00 	movl   $0xfff,-0x74(%rbp)
   41043:	48 c7 45 90 00 00 00 	movq   $0x0,-0x70(%rbp)
   4104a:	00 
    real_find(va, false);
   4104b:	ba 00 00 00 00       	mov    $0x0,%edx
   41050:	48 8d bd 78 ff ff ff 	lea    -0x88(%rbp),%rdi
   41057:	e8 ca 12 00 00       	call   42326 <vmiter::real_find(unsigned long, bool)>
    if (*pep_ & PTE_P) {
   4105c:	48 8b 45 80          	mov    -0x80(%rbp),%rax
   41060:	48 8b 10             	mov    (%rax),%rdx
        return -1;
   41063:	48 c7 c3 ff ff ff ff 	mov    $0xffffffffffffffff,%rbx
    if (*pep_ & PTE_P) {
   4106a:	f6 c2 01             	test   $0x1,%dl
   4106d:	0f 84 22 ff ff ff    	je     40f95 <process_setup(int, char const*)+0x1fa>
        if (lbits_ > PAGEOFFBITS) {
   41073:	8b 4d 88             	mov    -0x78(%rbp),%ecx
            pa &= ~0x1000UL;
   41076:	48 b8 00 e0 ff ff ff 	movabs $0xfffffffffe000,%rax
   4107d:	ff 0f 00 
   41080:	48 21 d0             	and    %rdx,%rax
        if (lbits_ > PAGEOFFBITS) {
   41083:	83 f9 0c             	cmp    $0xc,%ecx
   41086:	0f 8f f5 fe ff ff    	jg     40f81 <process_setup(int, char const*)+0x1e6>
        uintptr_t pa = *pep_ & PTE_PAMASK;
   4108c:	48 b8 00 f0 ff ff ff 	movabs $0xffffffffff000,%rax
   41093:	ff 0f 00 
   41096:	48 21 d0             	and    %rdx,%rax
   41099:	e9 e3 fe ff ff       	jmp    40f81 <process_setup(int, char const*)+0x1e6>
    }
   
    for (auto seg = pgm.begin(); seg != pgm.end(); ++seg) {
   4109e:	48 8d 7d 98          	lea    -0x68(%rbp),%rdi
   410a2:	e8 d7 33 00 00       	call   4447e <program_image::begin() const>
   410a7:	48 89 85 68 ff ff ff 	mov    %rax,-0x98(%rbp)
   410ae:	48 89 95 70 ff ff ff 	mov    %rdx,-0x90(%rbp)
            }
            // so we dont copy excess data
            allocated_sz = min(seg.data_size() - allocated, allocated_sz);

            // copying data to page
            memset((void*) vmiter(ptable[pid].pagetable, a).pa(), 0, allocated_sz);
   410b5:	48 63 85 54 ff ff ff 	movslq -0xac(%rbp),%rax
   410bc:	4c 8d 34 40          	lea    (%rax,%rax,2),%r14
   410c0:	4e 8d 3c f5 00 00 00 	lea    0x0(,%r14,8),%r15
   410c7:	00 
    for (auto seg = pgm.begin(); seg != pgm.end(); ++seg) {
   410c8:	e9 af 02 00 00       	jmp    4137c <process_setup(int, char const*)+0x5e1>
                allocated_sz = PAGESIZE - (seg.va() - a);
   410cd:	48 8d bd 68 ff ff ff 	lea    -0x98(%rbp),%rdi
   410d4:	e8 1d 34 00 00       	call   444f6 <program_image_segment::va() const>
   410d9:	49 8d 9c 24 00 10 00 	lea    0x1000(%r12),%rbx
   410e0:	00 
   410e1:	48 29 c3             	sub    %rax,%rbx
   410e4:	eb 76                	jmp    4115c <process_setup(int, char const*)+0x3c1>
    return ~(~uintptr_t(0) << lbits);
   410e6:	48 c7 c7 ff ff ff ff 	mov    $0xffffffffffffffff,%rdi
   410ed:	48 d3 e7             	shl    %cl,%rdi
   410f0:	48 f7 d7             	not    %rdi
        return pa + (va_ & lbits_mask(lbits_));
   410f3:	48 23 7d 90          	and    -0x70(%rbp),%rdi
   410f7:	48 01 c7             	add    %rax,%rdi
            memcpy((void*) vmiter(ptable[pid].pagetable, a).pa(), seg.data()+allocated, allocated_sz);
   410fa:	48 89 da             	mov    %rbx,%rdx
   410fd:	48 8b b5 58 ff ff ff 	mov    -0xa8(%rbp),%rsi
   41104:	e8 85 40 00 00       	call   4518e <memcpy>
            allocated += allocated_sz;
   41109:	49 01 dd             	add    %rbx,%r13

            if (!seg.writable()) {
   4110c:	48 8d bd 68 ff ff ff 	lea    -0x98(%rbp),%rdi
   41113:	e8 12 34 00 00       	call   4452a <program_image_segment::writable() const>
   41118:	84 c0                	test   %al,%al
   4111a:	0f 84 82 01 00 00    	je     412a2 <process_setup(int, char const*)+0x507>
            a += PAGESIZE) {
   41120:	49 81 c4 00 10 00 00 	add    $0x1000,%r12
            a < seg.va() + seg.size();
   41127:	48 8d bd 68 ff ff ff 	lea    -0x98(%rbp),%rdi
   4112e:	e8 c3 33 00 00       	call   444f6 <program_image_segment::va() const>
   41133:	48 89 c3             	mov    %rax,%rbx
   41136:	48 8d bd 68 ff ff ff 	lea    -0x98(%rbp),%rdi
   4113d:	e8 c0 33 00 00       	call   44502 <program_image_segment::size() const>
   41142:	48 01 c3             	add    %rax,%rbx
   41145:	49 39 dc             	cmp    %rbx,%r12
   41148:	0f 83 22 02 00 00    	jae    41370 <process_setup(int, char const*)+0x5d5>
            size_t allocated_sz = PAGESIZE;
   4114e:	bb 00 10 00 00       	mov    $0x1000,%ebx
            if (allocated == 0) {
   41153:	4d 85 ed             	test   %r13,%r13
   41156:	0f 84 71 ff ff ff    	je     410cd <process_setup(int, char const*)+0x332>
            allocated_sz = min(seg.data_size() - allocated, allocated_sz);
   4115c:	48 8d bd 68 ff ff ff 	lea    -0x98(%rbp),%rdi
   41163:	e8 b6 33 00 00       	call   4451e <program_image_segment::data_size() const>
   41168:	4c 29 e8             	sub    %r13,%rax

// min(a, b, ...)
//    Return the minimum of the arguments.
template <typename T>
inline constexpr T min(T a, T b) {
    return a < b ? a : b;
   4116b:	48 39 d8             	cmp    %rbx,%rax
   4116e:	48 0f 46 d8          	cmovbe %rax,%rbx
            memset((void*) vmiter(ptable[pid].pagetable, a).pa(), 0, allocated_sz);
   41172:	4b 8d 04 3e          	lea    (%r14,%r15,1),%rax
   41176:	48 8b 04 c5 20 42 06 	mov    0x64220(,%rax,8),%rax
   4117d:	00 
    : pt_(pt), pep_(&pt_->entry[0]), lbits_(initial_lbits),
   4117e:	48 89 85 78 ff ff ff 	mov    %rax,-0x88(%rbp)
   41185:	48 89 45 80          	mov    %rax,-0x80(%rbp)
   41189:	c7 45 88 27 00 00 00 	movl   $0x27,-0x78(%rbp)
      perm_(initial_perm), va_(0) {
   41190:	c7 45 8c ff 0f 00 00 	movl   $0xfff,-0x74(%rbp)
   41197:	48 c7 45 90 00 00 00 	movq   $0x0,-0x70(%rbp)
   4119e:	00 
    real_find(va, false);
   4119f:	ba 00 00 00 00       	mov    $0x0,%edx
   411a4:	4c 89 e6             	mov    %r12,%rsi
   411a7:	48 8d bd 78 ff ff ff 	lea    -0x88(%rbp),%rdi
   411ae:	e8 73 11 00 00       	call   42326 <vmiter::real_find(unsigned long, bool)>
    if (*pep_ & PTE_P) {
   411b3:	48 8b 45 80          	mov    -0x80(%rbp),%rax
   411b7:	48 8b 10             	mov    (%rax),%rdx
        return -1;
   411ba:	48 c7 c7 ff ff ff ff 	mov    $0xffffffffffffffff,%rdi
    if (*pep_ & PTE_P) {
   411c1:	f6 c2 01             	test   $0x1,%dl
   411c4:	74 36                	je     411fc <process_setup(int, char const*)+0x461>
        if (lbits_ > PAGEOFFBITS) {
   411c6:	8b 4d 88             	mov    -0x78(%rbp),%ecx
            pa &= ~0x1000UL;
   411c9:	48 b8 00 e0 ff ff ff 	movabs $0xfffffffffe000,%rax
   411d0:	ff 0f 00 
   411d3:	48 21 d0             	and    %rdx,%rax
        if (lbits_ > PAGEOFFBITS) {
   411d6:	83 f9 0c             	cmp    $0xc,%ecx
   411d9:	7f 0d                	jg     411e8 <process_setup(int, char const*)+0x44d>
        uintptr_t pa = *pep_ & PTE_PAMASK;
   411db:	48 b8 00 f0 ff ff ff 	movabs $0xffffffffff000,%rax
   411e2:	ff 0f 00 
   411e5:	48 21 d0             	and    %rdx,%rax
    return ~(~uintptr_t(0) << lbits);
   411e8:	48 c7 c7 ff ff ff ff 	mov    $0xffffffffffffffff,%rdi
   411ef:	48 d3 e7             	shl    %cl,%rdi
   411f2:	48 f7 d7             	not    %rdi
        return pa + (va_ & lbits_mask(lbits_));
   411f5:	48 23 7d 90          	and    -0x70(%rbp),%rdi
   411f9:	48 01 c7             	add    %rax,%rdi
   411fc:	48 89 da             	mov    %rbx,%rdx
   411ff:	be 00 00 00 00       	mov    $0x0,%esi
   41204:	e8 a9 3f 00 00       	call   451b2 <memset>
            memcpy((void*) vmiter(ptable[pid].pagetable, a).pa(), seg.data()+allocated, allocated_sz);
   41209:	48 8d bd 68 ff ff ff 	lea    -0x98(%rbp),%rdi
   41210:	e8 f9 32 00 00       	call   4450e <program_image_segment::data() const>
   41215:	4c 01 e8             	add    %r13,%rax
   41218:	48 89 85 58 ff ff ff 	mov    %rax,-0xa8(%rbp)
   4121f:	4b 8d 04 3e          	lea    (%r14,%r15,1),%rax
   41223:	48 8b 04 c5 20 42 06 	mov    0x64220(,%rax,8),%rax
   4122a:	00 
    : pt_(pt), pep_(&pt_->entry[0]), lbits_(initial_lbits),
   4122b:	48 89 85 78 ff ff ff 	mov    %rax,-0x88(%rbp)
   41232:	48 89 45 80          	mov    %rax,-0x80(%rbp)
   41236:	c7 45 88 27 00 00 00 	movl   $0x27,-0x78(%rbp)
      perm_(initial_perm), va_(0) {
   4123d:	c7 45 8c ff 0f 00 00 	movl   $0xfff,-0x74(%rbp)
   41244:	48 c7 45 90 00 00 00 	movq   $0x0,-0x70(%rbp)
   4124b:	00 
    real_find(va, false);
   4124c:	ba 00 00 00 00       	mov    $0x0,%edx
   41251:	4c 89 e6             	mov    %r12,%rsi
   41254:	48 8d bd 78 ff ff ff 	lea    -0x88(%rbp),%rdi
   4125b:	e8 c6 10 00 00       	call   42326 <vmiter::real_find(unsigned long, bool)>
    if (*pep_ & PTE_P) {
   41260:	48 8b 45 80          	mov    -0x80(%rbp),%rax
   41264:	48 8b 10             	mov    (%rax),%rdx
        return -1;
   41267:	48 c7 c7 ff ff ff ff 	mov    $0xffffffffffffffff,%rdi
    if (*pep_ & PTE_P) {
   4126e:	f6 c2 01             	test   $0x1,%dl
   41271:	0f 84 83 fe ff ff    	je     410fa <process_setup(int, char const*)+0x35f>
        if (lbits_ > PAGEOFFBITS) {
   41277:	8b 4d 88             	mov    -0x78(%rbp),%ecx
            pa &= ~0x1000UL;
   4127a:	48 b8 00 e0 ff ff ff 	movabs $0xfffffffffe000,%rax
   41281:	ff 0f 00 
   41284:	48 21 d0             	and    %rdx,%rax
        if (lbits_ > PAGEOFFBITS) {
   41287:	83 f9 0c             	cmp    $0xc,%ecx
   4128a:	0f 8f 56 fe ff ff    	jg     410e6 <process_setup(int, char const*)+0x34b>
        uintptr_t pa = *pep_ & PTE_PAMASK;
   41290:	48 b8 00 f0 ff ff ff 	movabs $0xffffffffff000,%rax
   41297:	ff 0f 00 
   4129a:	48 21 d0             	and    %rdx,%rax
   4129d:	e9 44 fe ff ff       	jmp    410e6 <process_setup(int, char const*)+0x34b>
                // checking permissions
                vmiter vmi(ptable[pid].pagetable, a);
   412a2:	4b 8d 04 3e          	lea    (%r14,%r15,1),%rax
   412a6:	48 8b 04 c5 20 42 06 	mov    0x64220(,%rax,8),%rax
   412ad:	00 
    : pt_(pt), pep_(&pt_->entry[0]), lbits_(initial_lbits),
   412ae:	48 89 85 78 ff ff ff 	mov    %rax,-0x88(%rbp)
   412b5:	48 89 45 80          	mov    %rax,-0x80(%rbp)
   412b9:	c7 45 88 27 00 00 00 	movl   $0x27,-0x78(%rbp)
      perm_(initial_perm), va_(0) {
   412c0:	c7 45 8c ff 0f 00 00 	movl   $0xfff,-0x74(%rbp)
   412c7:	48 c7 45 90 00 00 00 	movq   $0x0,-0x70(%rbp)
   412ce:	00 
    real_find(va, false);
   412cf:	ba 00 00 00 00       	mov    $0x0,%edx
   412d4:	4c 89 e6             	mov    %r12,%rsi
   412d7:	48 8d bd 78 ff ff ff 	lea    -0x88(%rbp),%rdi
   412de:	e8 43 10 00 00       	call   42326 <vmiter::real_find(unsigned long, bool)>
    uint64_t ph = *pep_ & perm_;
   412e3:	48 8b 45 80          	mov    -0x80(%rbp),%rax
   412e7:	48 8b 38             	mov    (%rax),%rdi
   412ea:	48 63 45 8c          	movslq -0x74(%rbp),%rax
   412ee:	48 21 f8             	and    %rdi,%rax
    return ph & -(ph & PTE_P);
   412f1:	48 89 c2             	mov    %rax,%rdx
   412f4:	83 e2 01             	and    $0x1,%edx
   412f7:	48 f7 da             	neg    %rdx
   412fa:	48 21 c2             	and    %rax,%rdx
                int perm = vmi.perm();
                perm &= ~PTE_W;
   412fd:	83 e2 fd             	and    $0xfffffffd,%edx
        return -1;
   41300:	48 c7 c6 ff ff ff ff 	mov    $0xffffffffffffffff,%rsi
    if (*pep_ & PTE_P) {
   41307:	40 f6 c7 01          	test   $0x1,%dil
   4130b:	74 36                	je     41343 <process_setup(int, char const*)+0x5a8>
        if (lbits_ > PAGEOFFBITS) {
   4130d:	8b 4d 88             	mov    -0x78(%rbp),%ecx
            pa &= ~0x1000UL;
   41310:	48 b8 00 e0 ff ff ff 	movabs $0xfffffffffe000,%rax
   41317:	ff 0f 00 
   4131a:	48 21 f8             	and    %rdi,%rax
        if (lbits_ > PAGEOFFBITS) {
   4131d:	83 f9 0c             	cmp    $0xc,%ecx
   41320:	7f 0d                	jg     4132f <process_setup(int, char const*)+0x594>
        uintptr_t pa = *pep_ & PTE_PAMASK;
   41322:	48 b8 00 f0 ff ff ff 	movabs $0xffffffffff000,%rax
   41329:	ff 0f 00 
   4132c:	48 21 f8             	and    %rdi,%rax
    return ~(~uintptr_t(0) << lbits);
   4132f:	48 c7 c6 ff ff ff ff 	mov    $0xffffffffffffffff,%rsi
   41336:	48 d3 e6             	shl    %cl,%rsi
   41339:	48 f7 d6             	not    %rsi
        return pa + (va_ & lbits_mask(lbits_));
   4133c:	48 23 75 90          	and    -0x70(%rbp),%rsi
   41340:	48 01 c6             	add    %rax,%rsi
    int r = try_map(pa, perm);
   41343:	48 8d bd 78 ff ff ff 	lea    -0x88(%rbp),%rdi
   4134a:	e8 09 11 00 00       	call   42458 <vmiter::try_map(unsigned long, int)>
    assert(r == 0, "vmiter::map failed");
   4134f:	85 c0                	test   %eax,%eax
   41351:	0f 84 c9 fd ff ff    	je     41120 <process_setup(int, char const*)+0x385>
   41357:	b9 08 5f 04 00       	mov    $0x45f08,%ecx
   4135c:	ba 1b 5f 04 00       	mov    $0x45f1b,%edx
   41361:	be 10 01 00 00       	mov    $0x110,%esi
   41366:	bf 22 5f 04 00       	mov    $0x45f22,%edi
   4136b:	e8 4d 23 00 00       	call   436bd <assert_fail(char const*, int, char const*, char const*)>
    for (auto seg = pgm.begin(); seg != pgm.end(); ++seg) {
   41370:	48 8d bd 68 ff ff ff 	lea    -0x98(%rbp),%rdi
   41377:	e8 cc 31 00 00       	call   44548 <program_image_segment::operator++()>
   4137c:	48 8d 7d 98          	lea    -0x68(%rbp),%rdi
   41380:	e8 2d 31 00 00       	call   444b2 <program_image::end() const>
   41385:	48 89 45 c0          	mov    %rax,-0x40(%rbp)
   41389:	48 89 55 c8          	mov    %rdx,-0x38(%rbp)
   4138d:	48 8d 75 c0          	lea    -0x40(%rbp),%rsi
   41391:	48 8d bd 68 ff ff ff 	lea    -0x98(%rbp),%rdi
   41398:	e8 9d 31 00 00       	call   4453a <program_image_segment::operator!=(program_image_segment const&) const>
   4139d:	84 c0                	test   %al,%al
   4139f:	74 20                	je     413c1 <process_setup(int, char const*)+0x626>
        for (uintptr_t a = round_down(seg.va(), PAGESIZE);
   413a1:	48 8d bd 68 ff ff ff 	lea    -0x98(%rbp),%rdi
   413a8:	e8 49 31 00 00       	call   444f6 <program_image_segment::va() const>
   413ad:	48 25 00 f0 ff ff    	and    $0xfffffffffffff000,%rax
   413b3:	49 89 c4             	mov    %rax,%r12
        size_t allocated = 0;
   413b6:	41 bd 00 00 00 00    	mov    $0x0,%r13d
        for (uintptr_t a = round_down(seg.va(), PAGESIZE);
   413bc:	e9 66 fd ff ff       	jmp    41127 <process_setup(int, char const*)+0x38c>
            }
        }
    }

    // marking entry
    ptable[pid].regs.reg_rip = pgm.entry();
   413c1:	48 8d 7d 98          	lea    -0x68(%rbp),%rdi
   413c5:	e8 42 30 00 00       	call   4440c <program_image::entry() const>
   413ca:	48 89 c2             	mov    %rax,%rdx
   413cd:	48 63 85 54 ff ff ff 	movslq -0xac(%rbp),%rax
   413d4:	48 8d 1c 40          	lea    (%rax,%rax,2),%rbx
   413d8:	4c 8d 2c dd 00 00 00 	lea    0x0(,%rbx,8),%r13
   413df:	00 
   413e0:	4a 8d 04 2b          	lea    (%rbx,%r13,1),%rax
   413e4:	48 89 14 c5 c8 42 06 	mov    %rdx,0x642c8(,%rax,8)
   413eb:	00 

    // initializing map and stack
    uintptr_t stack = (uintptr_t) kalloc(PAGESIZE);
   413ec:	bf 00 10 00 00       	mov    $0x1000,%edi
   413f1:	e8 70 f7 ff ff       	call   40b66 <kalloc(unsigned long)>
   413f6:	49 89 c4             	mov    %rax,%r12
    uintptr_t stack_addr = MEMSIZE_VIRTUAL - PAGESIZE;

    int r = vmiter(ptable[pid].pagetable, stack_addr).try_map(stack, PTE_P | PTE_W | PTE_U);
   413f9:	4c 01 eb             	add    %r13,%rbx
   413fc:	48 8b 04 dd 20 42 06 	mov    0x64220(,%rbx,8),%rax
   41403:	00 
    : pt_(pt), pep_(&pt_->entry[0]), lbits_(initial_lbits),
   41404:	48 89 85 78 ff ff ff 	mov    %rax,-0x88(%rbp)
   4140b:	48 89 45 80          	mov    %rax,-0x80(%rbp)
   4140f:	c7 45 88 27 00 00 00 	movl   $0x27,-0x78(%rbp)
      perm_(initial_perm), va_(0) {
   41416:	c7 45 8c ff 0f 00 00 	movl   $0xfff,-0x74(%rbp)
   4141d:	48 c7 45 90 00 00 00 	movq   $0x0,-0x70(%rbp)
   41424:	00 
    real_find(va, false);
   41425:	ba 00 00 00 00       	mov    $0x0,%edx
   4142a:	be 00 f0 2f 00       	mov    $0x2ff000,%esi
   4142f:	48 8d bd 78 ff ff ff 	lea    -0x88(%rbp),%rdi
   41436:	e8 eb 0e 00 00       	call   42326 <vmiter::real_find(unsigned long, bool)>
   4143b:	ba 07 00 00 00       	mov    $0x7,%edx
   41440:	4c 89 e6             	mov    %r12,%rsi
   41443:	48 8d bd 78 ff ff ff 	lea    -0x88(%rbp),%rdi
   4144a:	e8 09 10 00 00       	call   42458 <vmiter::try_map(unsigned long, int)>
    assert(r == 0);
   4144f:	85 c0                	test   %eax,%eax
   41451:	75 40                	jne    41493 <process_setup(int, char const*)+0x6f8>

    // set stack pointer
    ptable[pid].regs.reg_rsp = stack_addr + PAGESIZE;
   41453:	48 63 85 54 ff ff ff 	movslq -0xac(%rbp),%rax
   4145a:	48 8d 04 40          	lea    (%rax,%rax,2),%rax
   4145e:	48 8d 14 c5 00 00 00 	lea    0x0(,%rax,8),%rdx
   41465:	00 
   41466:	48 8d 0c 10          	lea    (%rax,%rdx,1),%rcx
   4146a:	48 c7 04 cd e0 42 06 	movq   $0x300000,0x642e0(,%rcx,8)
   41471:	00 00 00 30 00 
    ptable[pid].state = P_RUNNABLE;
   41476:	c7 04 cd 2c 42 06 00 	movl   $0x1,0x6422c(,%rcx,8)
   4147d:	01 00 00 00 
}
   41481:	48 81 c4 88 00 00 00 	add    $0x88,%rsp
   41488:	5b                   	pop    %rbx
   41489:	41 5c                	pop    %r12
   4148b:	41 5d                	pop    %r13
   4148d:	41 5e                	pop    %r14
   4148f:	41 5f                	pop    %r15
   41491:	5d                   	pop    %rbp
   41492:	c3                   	ret
    assert(r == 0);
   41493:	b9 00 00 00 00       	mov    $0x0,%ecx
   41498:	ba 1b 5f 04 00       	mov    $0x45f1b,%edx
   4149d:	be fe 00 00 00       	mov    $0xfe,%esi
   414a2:	bf fe 5e 04 00       	mov    $0x45efe,%edi
   414a7:	e8 11 22 00 00       	call   436bd <assert_fail(char const*, int, char const*, char const*)>

00000000000414ac <free_everything(x86_64_pagetable*)>:
    }

    panic("Should not get here!\n");
}

void free_everything(x86_64_pagetable* pagetable) {
   414ac:	f3 0f 1e fa          	endbr64
    if (!pagetable) {
   414b0:	48 85 ff             	test   %rdi,%rdi
   414b3:	0f 84 47 01 00 00    	je     41600 <free_everything(x86_64_pagetable*)+0x154>
void free_everything(x86_64_pagetable* pagetable) {
   414b9:	55                   	push   %rbp
   414ba:	48 89 e5             	mov    %rsp,%rbp
   414bd:	41 54                	push   %r12
   414bf:	53                   	push   %rbx
   414c0:	48 83 ec 20          	sub    $0x20,%rsp
   414c4:	48 89 fb             	mov    %rdi,%rbx
    : pt_(pt), pep_(&pt_->entry[0]), lbits_(initial_lbits),
   414c7:	48 89 7d d0          	mov    %rdi,-0x30(%rbp)
   414cb:	48 89 7d d8          	mov    %rdi,-0x28(%rbp)
   414cf:	c7 45 e0 27 00 00 00 	movl   $0x27,-0x20(%rbp)
      perm_(initial_perm), va_(0) {
   414d6:	c7 45 e4 ff 0f 00 00 	movl   $0xfff,-0x1c(%rbp)
   414dd:	48 c7 45 e8 00 00 00 	movq   $0x0,-0x18(%rbp)
   414e4:	00 
    real_find(va, false);
   414e5:	ba 00 00 00 00       	mov    $0x0,%edx
   414ea:	be 00 00 00 00       	mov    $0x0,%esi
   414ef:	48 8d 7d d0          	lea    -0x30(%rbp),%rdi
   414f3:	e8 2e 0e 00 00       	call   42326 <vmiter::real_find(unsigned long, bool)>
    return va_;
   414f8:	48 8b 75 e8          	mov    -0x18(%rbp),%rsi
        return;
    }
    // freeing unmapped pages
    for (vmiter it(pagetable, 0); it.va() < MEMSIZE_VIRTUAL; it += PAGESIZE) {
   414fc:	48 81 fe ff ff 2f 00 	cmp    $0x2fffff,%rsi
   41503:	0f 87 a7 00 00 00    	ja     415b0 <free_everything(x86_64_pagetable*)+0x104>
            pa &= ~0x1000UL;
   41509:	49 bc 00 e0 ff ff ff 	movabs $0xfffffffffe000,%r12
   41510:	ff 0f 00 
   41513:	eb 42                	jmp    41557 <free_everything(x86_64_pagetable*)+0xab>
    return ~(~uintptr_t(0) << lbits);
   41515:	48 c7 c7 ff ff ff ff 	mov    $0xffffffffffffffff,%rdi
   4151c:	48 d3 e7             	shl    %cl,%rdi
   4151f:	48 f7 d7             	not    %rdi
        return pa + (va_ & lbits_mask(lbits_));
   41522:	48 21 f7             	and    %rsi,%rdi
   41525:	48 01 c7             	add    %rax,%rdi
        if (it.present() && it.user()) {
            uintptr_t pa = it.pa();
            if (pa!= CONSOLE_ADDR) {
   41528:	48 81 ff 00 80 0b 00 	cmp    $0xb8000,%rdi
   4152f:	75 78                	jne    415a9 <free_everything(x86_64_pagetable*)+0xfd>
    return find(va_ + delta);
   41531:	48 8b 45 e8          	mov    -0x18(%rbp),%rax
   41535:	48 8d b0 00 10 00 00 	lea    0x1000(%rax),%rsi
        real_find(va, false);
   4153c:	ba 00 00 00 00       	mov    $0x0,%edx
   41541:	48 8d 7d d0          	lea    -0x30(%rbp),%rdi
   41545:	e8 dc 0d 00 00       	call   42326 <vmiter::real_find(unsigned long, bool)>
    return va_;
   4154a:	48 8b 75 e8          	mov    -0x18(%rbp),%rsi
    for (vmiter it(pagetable, 0); it.va() < MEMSIZE_VIRTUAL; it += PAGESIZE) {
   4154e:	48 81 fe ff ff 2f 00 	cmp    $0x2fffff,%rsi
   41555:	77 59                	ja     415b0 <free_everything(x86_64_pagetable*)+0x104>
    uint64_t ph = *pep_ & perm_;
   41557:	48 8b 45 d8          	mov    -0x28(%rbp),%rax
   4155b:	48 8b 38             	mov    (%rax),%rdi
   4155e:	48 63 55 e4          	movslq -0x1c(%rbp),%rdx
   41562:	48 21 fa             	and    %rdi,%rdx
    return ph & -(ph & PTE_P);
   41565:	48 89 d0             	mov    %rdx,%rax
   41568:	83 e0 01             	and    $0x1,%eax
   4156b:	48 f7 d8             	neg    %rax
   4156e:	48 21 d0             	and    %rdx,%rax
        if (it.present() && it.user()) {
   41571:	a8 01                	test   $0x1,%al
   41573:	74 bc                	je     41531 <free_everything(x86_64_pagetable*)+0x85>
   41575:	48 f7 d0             	not    %rax
   41578:	a8 05                	test   $0x5,%al
   4157a:	75 b5                	jne    41531 <free_everything(x86_64_pagetable*)+0x85>
    if (*pep_ & PTE_P) {
   4157c:	40 f6 c7 01          	test   $0x1,%dil
   41580:	74 20                	je     415a2 <free_everything(x86_64_pagetable*)+0xf6>
        if (lbits_ > PAGEOFFBITS) {
   41582:	8b 4d e0             	mov    -0x20(%rbp),%ecx
            pa &= ~0x1000UL;
   41585:	48 89 f8             	mov    %rdi,%rax
   41588:	4c 21 e0             	and    %r12,%rax
        if (lbits_ > PAGEOFFBITS) {
   4158b:	83 f9 0c             	cmp    $0xc,%ecx
   4158e:	7f 85                	jg     41515 <free_everything(x86_64_pagetable*)+0x69>
        uintptr_t pa = *pep_ & PTE_PAMASK;
   41590:	48 b8 00 f0 ff ff ff 	movabs $0xffffffffff000,%rax
   41597:	ff 0f 00 
   4159a:	48 21 f8             	and    %rdi,%rax
   4159d:	e9 73 ff ff ff       	jmp    41515 <free_everything(x86_64_pagetable*)+0x69>
        return -1;
   415a2:	48 c7 c7 ff ff ff ff 	mov    $0xffffffffffffffff,%rdi
                kfree((void*) pa);
   415a9:	e8 45 f6 ff ff       	call   40bf3 <kfree(void*)>
   415ae:	eb 81                	jmp    41531 <free_everything(x86_64_pagetable*)+0x85>
            }
        }
    }
    // freeing pagetable pages
    for (ptiter it(pagetable); !it.done(); it.next()) {
   415b0:	48 89 de             	mov    %rbx,%rsi
   415b3:	48 8d 7d d0          	lea    -0x30(%rbp),%rdi
   415b7:	e8 8e 12 00 00       	call   4284a <ptiter::ptiter(x86_64_pagetable*)>
   415bc:	83 7d e0 40          	cmpl   $0x40,-0x20(%rbp)
   415c0:	74 2d                	je     415ef <free_everything(x86_64_pagetable*)+0x143>
}
inline void ptiter::next() {
    down(true);
}
inline uintptr_t ptiter::pa() const {
    return *pep_ & PTE_PAMASK;
   415c2:	49 bc 00 f0 ff ff ff 	movabs $0xffffffffff000,%r12
   415c9:	ff 0f 00 
   415cc:	48 8b 45 d8          	mov    -0x28(%rbp),%rax
   415d0:	4c 89 e7             	mov    %r12,%rdi
   415d3:	48 23 38             	and    (%rax),%rdi
        kfree(it.kptr());
   415d6:	e8 18 f6 ff ff       	call   40bf3 <kfree(void*)>
    down(true);
   415db:	be 01 00 00 00       	mov    $0x1,%esi
   415e0:	48 8d 7d d0          	lea    -0x30(%rbp),%rdi
   415e4:	e8 37 11 00 00       	call   42720 <ptiter::down(bool)>
    for (ptiter it(pagetable); !it.done(); it.next()) {
   415e9:	83 7d e0 40          	cmpl   $0x40,-0x20(%rbp)
   415ed:	75 dd                	jne    415cc <free_everything(x86_64_pagetable*)+0x120>
    }
    kfree(pagetable);
   415ef:	48 89 df             	mov    %rbx,%rdi
   415f2:	e8 fc f5 ff ff       	call   40bf3 <kfree(void*)>
}
   415f7:	48 83 c4 20          	add    $0x20,%rsp
   415fb:	5b                   	pop    %rbx
   415fc:	41 5c                	pop    %r12
   415fe:	5d                   	pop    %rbp
   415ff:	c3                   	ret
   41600:	c3                   	ret

0000000000041601 <sys_exit(int)>:

void sys_exit(pid_t pid) {
   41601:	f3 0f 1e fa          	endbr64
   41605:	55                   	push   %rbp
   41606:	48 89 e5             	mov    %rsp,%rbp
   41609:	41 54                	push   %r12
   4160b:	53                   	push   %rbx
    // calling helper function
    free_everything(ptable[pid].pagetable);
   4160c:	48 63 ff             	movslq %edi,%rdi
   4160f:	48 8d 1c 7f          	lea    (%rdi,%rdi,2),%rbx
   41613:	4c 8d 24 dd 00 00 00 	lea    0x0(,%rbx,8),%r12
   4161a:	00 
   4161b:	4a 8d 04 23          	lea    (%rbx,%r12,1),%rax
   4161f:	48 8b 3c c5 20 42 06 	mov    0x64220(,%rax,8),%rdi
   41626:	00 
   41627:	e8 80 fe ff ff       	call   414ac <free_everything(x86_64_pagetable*)>
    ptable[pid].pagetable = nullptr;
   4162c:	4a 8d 04 23          	lea    (%rbx,%r12,1),%rax
   41630:	48 c7 04 c5 20 42 06 	movq   $0x0,0x64220(,%rax,8)
   41637:	00 00 00 00 00 
    ptable[pid].state = P_FREE;
   4163c:	c7 04 c5 2c 42 06 00 	movl   $0x0,0x6422c(,%rax,8)
   41643:	00 00 00 00 
}
   41647:	5b                   	pop    %rbx
   41648:	41 5c                	pop    %r12
   4164a:	5d                   	pop    %rbp
   4164b:	c3                   	ret

000000000004164c <syscall_fork()>:


int syscall_fork() {
   4164c:	f3 0f 1e fa          	endbr64
   41650:	55                   	push   %rbp
   41651:	48 89 e5             	mov    %rsp,%rbp
   41654:	41 57                	push   %r15
   41656:	41 56                	push   %r14
   41658:	41 55                	push   %r13
   4165a:	41 54                	push   %r12
   4165c:	53                   	push   %rbx
   4165d:	48 83 ec 48          	sub    $0x48,%rsp
    pid_t child_pid = 0;

    // finding available slot
    for (pid_t i = 1; i < PID_MAX; i++) {
   41661:	b8 04 43 06 00       	mov    $0x64304,%eax
   41666:	41 bd 01 00 00 00    	mov    $0x1,%r13d
        if (ptable[i].state == P_FREE) {
   4166c:	83 38 00             	cmpl   $0x0,(%rax)
   4166f:	74 28                	je     41699 <syscall_fork()+0x4d>
    for (pid_t i = 1; i < PID_MAX; i++) {
   41671:	41 83 c5 01          	add    $0x1,%r13d
   41675:	48 05 d8 00 00 00    	add    $0xd8,%rax
   4167b:	41 83 fd 10          	cmp    $0x10,%r13d
   4167f:	75 eb                	jne    4166c <syscall_fork()+0x20>
            break;
        }
    }

    if (child_pid == 0) {
        return -1;
   41681:	41 bd ff ff ff ff    	mov    $0xffffffff,%r13d

    ptable[child_pid].regs = current->regs;
    ptable[child_pid].regs.reg_rax = 0;  

    return child_pid;  
}
   41687:	44 89 e8             	mov    %r13d,%eax
   4168a:	48 83 c4 48          	add    $0x48,%rsp
   4168e:	5b                   	pop    %rbx
   4168f:	41 5c                	pop    %r12
   41691:	41 5d                	pop    %r13
   41693:	41 5e                	pop    %r14
   41695:	41 5f                	pop    %r15
   41697:	5d                   	pop    %rbp
   41698:	c3                   	ret
    if (child_pid == 0) {
   41699:	45 85 ed             	test   %r13d,%r13d
   4169c:	0f 84 b4 03 00 00    	je     41a56 <syscall_fork()+0x40a>
    proc* child_proc = &ptable[child_pid];
   416a2:	49 63 c5             	movslq %r13d,%rax
   416a5:	48 8d 04 40          	lea    (%rax,%rax,2),%rax
   416a9:	48 8d 04 c0          	lea    (%rax,%rax,8),%rax
   416ad:	48 8d 3c c5 20 42 06 	lea    0x64220(,%rax,8),%rdi
   416b4:	00 
    init_process(child_proc, 0);
   416b5:	be 00 00 00 00       	mov    $0x0,%esi
   416ba:	e8 f3 13 00 00       	call   42ab2 <init_process(proc*, int)>
    x86_64_pagetable* child_pagetable = kalloc_pagetable();
   416bf:	e8 39 13 00 00       	call   429fd <kalloc_pagetable()>
    if (!child_pagetable) {
   416c4:	48 85 c0             	test   %rax,%rax
   416c7:	0f 84 cd 00 00 00    	je     4179a <syscall_fork()+0x14e>
    child_proc->pagetable = child_pagetable;
   416cd:	49 63 d5             	movslq %r13d,%rdx
   416d0:	48 8d 1c 52          	lea    (%rdx,%rdx,2),%rbx
   416d4:	4c 8d 24 dd 00 00 00 	lea    0x0(,%rbx,8),%r12
   416db:	00 
   416dc:	4a 8d 14 23          	lea    (%rbx,%r12,1),%rdx
   416e0:	48 89 04 d5 20 42 06 	mov    %rax,0x64220(,%rdx,8)
   416e7:	00 
    ptable[child_pid].state = P_RUNNABLE;
   416e8:	c7 04 d5 2c 42 06 00 	movl   $0x1,0x6422c(,%rdx,8)
   416ef:	01 00 00 00 
    vmiter parent_iter(current->pagetable, 0);
   416f3:	48 8b 05 06 2b 02 00 	mov    0x22b06(%rip),%rax        # 64200 <current>
   416fa:	48 8b 00             	mov    (%rax),%rax
    : pt_(pt), pep_(&pt_->entry[0]), lbits_(initial_lbits),
   416fd:	48 89 45 b0          	mov    %rax,-0x50(%rbp)
   41701:	48 89 45 b8          	mov    %rax,-0x48(%rbp)
   41705:	c7 45 c0 27 00 00 00 	movl   $0x27,-0x40(%rbp)
      perm_(initial_perm), va_(0) {
   4170c:	c7 45 c4 ff 0f 00 00 	movl   $0xfff,-0x3c(%rbp)
   41713:	48 c7 45 c8 00 00 00 	movq   $0x0,-0x38(%rbp)
   4171a:	00 
    real_find(va, false);
   4171b:	ba 00 00 00 00       	mov    $0x0,%edx
   41720:	be 00 00 00 00       	mov    $0x0,%esi
   41725:	48 8d 7d b0          	lea    -0x50(%rbp),%rdi
   41729:	e8 f8 0b 00 00       	call   42326 <vmiter::real_find(unsigned long, bool)>
    vmiter child_iter(ptable[child_pid].pagetable, parent_iter.va());
   4172e:	4c 01 e3             	add    %r12,%rbx
   41731:	48 8b 04 dd 20 42 06 	mov    0x64220(,%rbx,8),%rax
   41738:	00 
    : pt_(pt), pep_(&pt_->entry[0]), lbits_(initial_lbits),
   41739:	48 89 45 90          	mov    %rax,-0x70(%rbp)
   4173d:	48 89 45 98          	mov    %rax,-0x68(%rbp)
   41741:	c7 45 a0 27 00 00 00 	movl   $0x27,-0x60(%rbp)
      perm_(initial_perm), va_(0) {
   41748:	c7 45 a4 ff 0f 00 00 	movl   $0xfff,-0x5c(%rbp)
   4174f:	48 c7 45 a8 00 00 00 	movq   $0x0,-0x58(%rbp)
   41756:	00 
    real_find(va, false);
   41757:	ba 00 00 00 00       	mov    $0x0,%edx
   4175c:	48 8b 75 c8          	mov    -0x38(%rbp),%rsi
   41760:	48 8d 7d 90          	lea    -0x70(%rbp),%rdi
   41764:	e8 bd 0b 00 00       	call   42326 <vmiter::real_find(unsigned long, bool)>
    return va_;
   41769:	48 8b 55 c8          	mov    -0x38(%rbp),%rdx
    for (; parent_iter.va() < MEMSIZE_VIRTUAL; parent_iter += PAGESIZE, child_iter += PAGESIZE) {
   4176d:	48 81 fa ff ff 2f 00 	cmp    $0x2fffff,%rdx
   41774:	0f 87 97 02 00 00    	ja     41a11 <syscall_fork()+0x3c5>
            pa &= ~0x1000UL;
   4177a:	49 bc 00 e0 ff ff ff 	movabs $0xfffffffffe000,%r12
   41781:	ff 0f 00 
    return ~(~uintptr_t(0) << lbits);
   41784:	48 c7 c3 ff ff ff ff 	mov    $0xffffffffffffffff,%rbx
        uintptr_t pa = *pep_ & PTE_PAMASK;
   4178b:	49 be 00 f0 ff ff ff 	movabs $0xffffffffff000,%r14
   41792:	ff 0f 00 
   41795:	e9 c0 00 00 00       	jmp    4185a <syscall_fork()+0x20e>
        child_proc->state = P_FREE;
   4179a:	4d 63 ed             	movslq %r13d,%r13
   4179d:	4b 8d 44 6d 00       	lea    0x0(%r13,%r13,2),%rax
   417a2:	48 8d 04 c0          	lea    (%rax,%rax,8),%rax
   417a6:	c7 04 c5 2c 42 06 00 	movl   $0x0,0x6422c(,%rax,8)
   417ad:	00 00 00 00 
        return -1;
   417b1:	41 bd ff ff ff ff    	mov    $0xffffffff,%r13d
   417b7:	e9 cb fe ff ff       	jmp    41687 <syscall_fork()+0x3b>
        if (parent_iter.writable() && parent_iter.user() && parent_iter.pa() != CONSOLE_ADDR) {
   417bc:	f6 c1 05             	test   $0x5,%cl
   417bf:	0f 84 0a 01 00 00    	je     418cf <syscall_fork()+0x283>
    uint64_t ph = *pep_ & perm_;
   417c5:	49 8b 38             	mov    (%r8),%rdi
   417c8:	48 21 fe             	and    %rdi,%rsi
    return ph & -(ph & PTE_P);
   417cb:	48 89 f0             	mov    %rsi,%rax
   417ce:	83 e0 01             	and    $0x1,%eax
   417d1:	48 f7 d8             	neg    %rax
            if (child_iter.try_map(parent_iter.pa(), parent_iter.perm()) != 0) {
   417d4:	21 f0                	and    %esi,%eax
        return -1;
   417d6:	48 89 de             	mov    %rbx,%rsi
    if (*pep_ & PTE_P) {
   417d9:	40 f6 c7 01          	test   $0x1,%dil
   417dd:	74 25                	je     41804 <syscall_fork()+0x1b8>
        if (lbits_ > PAGEOFFBITS) {
   417df:	8b 4d c0             	mov    -0x40(%rbp),%ecx
        uintptr_t pa = *pep_ & PTE_PAMASK;
   417e2:	48 89 fe             	mov    %rdi,%rsi
   417e5:	4c 21 f6             	and    %r14,%rsi
   417e8:	4c 21 e7             	and    %r12,%rdi
   417eb:	49 89 f8             	mov    %rdi,%r8
   417ee:	83 f9 0c             	cmp    $0xc,%ecx
   417f1:	4c 0f 4e c6          	cmovle %rsi,%r8
    return ~(~uintptr_t(0) << lbits);
   417f5:	48 89 de             	mov    %rbx,%rsi
   417f8:	48 d3 e6             	shl    %cl,%rsi
   417fb:	48 f7 d6             	not    %rsi
        return pa + (va_ & lbits_mask(lbits_));
   417fe:	48 21 d6             	and    %rdx,%rsi
   41801:	4c 01 c6             	add    %r8,%rsi
   41804:	89 c2                	mov    %eax,%edx
   41806:	48 8d 7d 90          	lea    -0x70(%rbp),%rdi
   4180a:	e8 49 0c 00 00       	call   42458 <vmiter::try_map(unsigned long, int)>
   4180f:	85 c0                	test   %eax,%eax
   41811:	0f 85 e7 01 00 00    	jne    419fe <syscall_fork()+0x3b2>
    return find(va_ + delta);
   41817:	48 8b 45 c8          	mov    -0x38(%rbp),%rax
   4181b:	48 8d b0 00 10 00 00 	lea    0x1000(%rax),%rsi
        real_find(va, false);
   41822:	ba 00 00 00 00       	mov    $0x0,%edx
   41827:	48 8d 7d b0          	lea    -0x50(%rbp),%rdi
   4182b:	e8 f6 0a 00 00       	call   42326 <vmiter::real_find(unsigned long, bool)>
    return find(va_ + delta);
   41830:	48 8b 45 a8          	mov    -0x58(%rbp),%rax
   41834:	48 8d b0 00 10 00 00 	lea    0x1000(%rax),%rsi
        real_find(va, false);
   4183b:	ba 00 00 00 00       	mov    $0x0,%edx
   41840:	48 8d 7d 90          	lea    -0x70(%rbp),%rdi
   41844:	e8 dd 0a 00 00       	call   42326 <vmiter::real_find(unsigned long, bool)>
    return va_;
   41849:	48 8b 55 c8          	mov    -0x38(%rbp),%rdx
    for (; parent_iter.va() < MEMSIZE_VIRTUAL; parent_iter += PAGESIZE, child_iter += PAGESIZE) {
   4184d:	48 81 fa ff ff 2f 00 	cmp    $0x2fffff,%rdx
   41854:	0f 87 b7 01 00 00    	ja     41a11 <syscall_fork()+0x3c5>
    uint64_t ph = *pep_ & perm_;
   4185a:	4c 8b 45 b8          	mov    -0x48(%rbp),%r8
   4185e:	49 8b 38             	mov    (%r8),%rdi
   41861:	48 63 75 c4          	movslq -0x3c(%rbp),%rsi
   41865:	48 89 f9             	mov    %rdi,%rcx
   41868:	48 21 f1             	and    %rsi,%rcx
    return ph & -(ph & PTE_P);
   4186b:	48 89 c8             	mov    %rcx,%rax
   4186e:	83 e0 01             	and    $0x1,%eax
   41871:	48 f7 d8             	neg    %rax
   41874:	48 21 c8             	and    %rcx,%rax
        if (parent_iter.writable() && parent_iter.user() && parent_iter.pa() != CONSOLE_ADDR) {
   41877:	48 89 c1             	mov    %rax,%rcx
   4187a:	48 f7 d1             	not    %rcx
   4187d:	f6 c1 03             	test   $0x3,%cl
   41880:	0f 84 36 ff ff ff    	je     417bc <syscall_fork()+0x170>
            if (parent_iter.user() && !parent_iter.writable()) {
   41886:	48 f7 d0             	not    %rax
   41889:	a8 05                	test   $0x5,%al
   4188b:	0f 85 34 ff ff ff    	jne    417c5 <syscall_fork()+0x179>
        return -1;
   41891:	48 89 d8             	mov    %rbx,%rax
    if (*pep_ & PTE_P) {
   41894:	40 f6 c7 01          	test   $0x1,%dil
   41898:	74 25                	je     418bf <syscall_fork()+0x273>
        if (lbits_ > PAGEOFFBITS) {
   4189a:	8b 4d c0             	mov    -0x40(%rbp),%ecx
            pa &= ~0x1000UL;
   4189d:	48 89 f8             	mov    %rdi,%rax
   418a0:	4c 21 e0             	and    %r12,%rax
        uintptr_t pa = *pep_ & PTE_PAMASK;
   418a3:	49 89 f9             	mov    %rdi,%r9
   418a6:	4d 21 f1             	and    %r14,%r9
   418a9:	83 f9 0c             	cmp    $0xc,%ecx
   418ac:	4c 0f 4f c8          	cmovg  %rax,%r9
    return ~(~uintptr_t(0) << lbits);
   418b0:	48 89 d8             	mov    %rbx,%rax
   418b3:	48 d3 e0             	shl    %cl,%rax
   418b6:	48 f7 d0             	not    %rax
        return pa + (va_ & lbits_mask(lbits_));
   418b9:	48 21 d0             	and    %rdx,%rax
   418bc:	4c 01 c8             	add    %r9,%rax
                auto page_index = parent_iter.pa() / PAGESIZE;
   418bf:	48 c1 e8 0c          	shr    $0xc,%rax
                physpages[page_index].refcount++;
   418c3:	80 80 00 40 06 00 01 	addb   $0x1,0x64000(%rax)
   418ca:	e9 f6 fe ff ff       	jmp    417c5 <syscall_fork()+0x179>
    if (*pep_ & PTE_P) {
   418cf:	40 f6 c7 01          	test   $0x1,%dil
   418d3:	74 48                	je     4191d <syscall_fork()+0x2d1>
        if (lbits_ > PAGEOFFBITS) {
   418d5:	8b 4d c0             	mov    -0x40(%rbp),%ecx
            pa &= ~0x1000UL;
   418d8:	49 89 f9             	mov    %rdi,%r9
   418db:	4d 21 e1             	and    %r12,%r9
        if (lbits_ > PAGEOFFBITS) {
   418de:	83 f9 0c             	cmp    $0xc,%ecx
   418e1:	7f 0d                	jg     418f0 <syscall_fork()+0x2a4>
        uintptr_t pa = *pep_ & PTE_PAMASK;
   418e3:	49 b9 00 f0 ff ff ff 	movabs $0xffffffffff000,%r9
   418ea:	ff 0f 00 
   418ed:	49 21 f9             	and    %rdi,%r9
    return ~(~uintptr_t(0) << lbits);
   418f0:	48 89 d8             	mov    %rbx,%rax
   418f3:	48 d3 e0             	shl    %cl,%rax
   418f6:	48 f7 d0             	not    %rax
        return pa + (va_ & lbits_mask(lbits_));
   418f9:	48 21 d0             	and    %rdx,%rax
   418fc:	4c 01 c8             	add    %r9,%rax
        if (parent_iter.writable() && parent_iter.user() && parent_iter.pa() != CONSOLE_ADDR) {
   418ff:	48 3d 00 80 0b 00    	cmp    $0xb8000,%rax
   41905:	75 16                	jne    4191d <syscall_fork()+0x2d1>
    uint64_t ph = *pep_ & perm_;
   41907:	49 8b 38             	mov    (%r8),%rdi
   4190a:	48 21 fe             	and    %rdi,%rsi
    return ph & -(ph & PTE_P);
   4190d:	48 89 f0             	mov    %rsi,%rax
   41910:	83 e0 01             	and    $0x1,%eax
   41913:	48 f7 d8             	neg    %rax
            if (child_iter.try_map(parent_iter.pa(), parent_iter.perm()) != 0) {
   41916:	21 f0                	and    %esi,%eax
    if (*pep_ & PTE_P) {
   41918:	e9 c2 fe ff ff       	jmp    417df <syscall_fork()+0x193>
            void* new_page = kalloc(PAGESIZE);
   4191d:	bf 00 10 00 00       	mov    $0x1000,%edi
   41922:	e8 3f f2 ff ff       	call   40b66 <kalloc(unsigned long)>
   41927:	49 89 c7             	mov    %rax,%r15
            if (!new_page) {
   4192a:	48 85 c0             	test   %rax,%rax
   4192d:	0f 84 98 00 00 00    	je     419cb <syscall_fork()+0x37f>
    if (*pep_ & PTE_P) {
   41933:	48 8b 45 b8          	mov    -0x48(%rbp),%rax
   41937:	48 8b 10             	mov    (%rax),%rdx
   4193a:	f6 c2 01             	test   $0x1,%dl
   4193d:	0f 84 b1 00 00 00    	je     419f4 <syscall_fork()+0x3a8>
        if (lbits_ > PAGEOFFBITS) {
   41943:	8b 4d c0             	mov    -0x40(%rbp),%ecx
            pa &= ~0x1000UL;
   41946:	48 b8 00 e0 ff ff ff 	movabs $0xfffffffffe000,%rax
   4194d:	ff 0f 00 
   41950:	48 21 d0             	and    %rdx,%rax
        if (lbits_ > PAGEOFFBITS) {
   41953:	83 f9 0c             	cmp    $0xc,%ecx
   41956:	7f 0d                	jg     41965 <syscall_fork()+0x319>
        uintptr_t pa = *pep_ & PTE_PAMASK;
   41958:	48 b8 00 f0 ff ff ff 	movabs $0xffffffffff000,%rax
   4195f:	ff 0f 00 
   41962:	48 21 d0             	and    %rdx,%rax
    return ~(~uintptr_t(0) << lbits);
   41965:	48 c7 c6 ff ff ff ff 	mov    $0xffffffffffffffff,%rsi
   4196c:	48 d3 e6             	shl    %cl,%rsi
   4196f:	48 f7 d6             	not    %rsi
        return pa + (va_ & lbits_mask(lbits_));
   41972:	48 23 75 c8          	and    -0x38(%rbp),%rsi
   41976:	48 01 c6             	add    %rax,%rsi
            memcpy(new_page, parent_iter.kptr(), PAGESIZE);
   41979:	ba 00 10 00 00       	mov    $0x1000,%edx
   4197e:	4c 89 ff             	mov    %r15,%rdi
   41981:	e8 08 38 00 00       	call   4518e <memcpy>
    uint64_t ph = *pep_ & perm_;
   41986:	48 63 45 c4          	movslq -0x3c(%rbp),%rax
   4198a:	48 8b 55 b8          	mov    -0x48(%rbp),%rdx
   4198e:	48 23 02             	and    (%rdx),%rax
    return ph & -(ph & PTE_P);
   41991:	48 89 c2             	mov    %rax,%rdx
   41994:	83 e2 01             	and    $0x1,%edx
   41997:	48 f7 da             	neg    %rdx
    return try_map(reinterpret_cast<uintptr_t>(kp), perm);
   4199a:	21 c2                	and    %eax,%edx
   4199c:	4c 89 fe             	mov    %r15,%rsi
   4199f:	48 8d 7d 90          	lea    -0x70(%rbp),%rdi
   419a3:	e8 b0 0a 00 00       	call   42458 <vmiter::try_map(unsigned long, int)>
            if (r != 0) {
   419a8:	85 c0                	test   %eax,%eax
   419aa:	0f 84 67 fe ff ff    	je     41817 <syscall_fork()+0x1cb>
                kfree(new_page); 
   419b0:	4c 89 ff             	mov    %r15,%rdi
   419b3:	e8 3b f2 ff ff       	call   40bf3 <kfree(void*)>
                sys_exit(child_pid); 
   419b8:	44 89 ef             	mov    %r13d,%edi
   419bb:	e8 41 fc ff ff       	call   41601 <sys_exit(int)>
                return -1;
   419c0:	41 bd ff ff ff ff    	mov    $0xffffffff,%r13d
   419c6:	e9 bc fc ff ff       	jmp    41687 <syscall_fork()+0x3b>
                ptable[child_pid].state = P_FREE;
   419cb:	49 63 c5             	movslq %r13d,%rax
   419ce:	48 8d 04 40          	lea    (%rax,%rax,2),%rax
   419d2:	48 8d 04 c0          	lea    (%rax,%rax,8),%rax
   419d6:	c7 04 c5 2c 42 06 00 	movl   $0x0,0x6422c(,%rax,8)
   419dd:	00 00 00 00 
                sys_exit(child_pid);
   419e1:	44 89 ef             	mov    %r13d,%edi
   419e4:	e8 18 fc ff ff       	call   41601 <sys_exit(int)>
                return -1;
   419e9:	41 bd ff ff ff ff    	mov    $0xffffffff,%r13d
   419ef:	e9 93 fc ff ff       	jmp    41687 <syscall_fork()+0x3b>
        return nullptr;
   419f4:	be 00 00 00 00       	mov    $0x0,%esi
   419f9:	e9 7b ff ff ff       	jmp    41979 <syscall_fork()+0x32d>
                sys_exit(child_pid);
   419fe:	44 89 ef             	mov    %r13d,%edi
   41a01:	e8 fb fb ff ff       	call   41601 <sys_exit(int)>
                return -1;
   41a06:	41 bd ff ff ff ff    	mov    $0xffffffff,%r13d
   41a0c:	e9 76 fc ff ff       	jmp    41687 <syscall_fork()+0x3b>
    ptable[child_pid].regs = current->regs;
   41a11:	49 63 c5             	movslq %r13d,%rax
   41a14:	48 8d 04 40          	lea    (%rax,%rax,2),%rax
   41a18:	48 8d 14 c5 00 00 00 	lea    0x0(,%rax,8),%rdx
   41a1f:	00 
   41a20:	48 8d 0c 10          	lea    (%rax,%rdx,1),%rcx
   41a24:	4c 8d 04 cd 30 42 06 	lea    0x64230(,%rcx,8),%r8
   41a2b:	00 
   41a2c:	48 8b 1d cd 27 02 00 	mov    0x227cd(%rip),%rbx        # 64200 <current>
   41a33:	48 8d 73 10          	lea    0x10(%rbx),%rsi
   41a37:	b9 18 00 00 00       	mov    $0x18,%ecx
   41a3c:	4c 89 c7             	mov    %r8,%rdi
   41a3f:	f3 48 a5             	rep movsq %ds:(%rsi),%es:(%rdi)
    ptable[child_pid].regs.reg_rax = 0;  
   41a42:	48 01 d0             	add    %rdx,%rax
   41a45:	48 c7 04 c5 30 42 06 	movq   $0x0,0x64230(,%rax,8)
   41a4c:	00 00 00 00 00 
    return child_pid;  
   41a51:	e9 31 fc ff ff       	jmp    41687 <syscall_fork()+0x3b>
        return -1;
   41a56:	41 bd ff ff ff ff    	mov    $0xffffffff,%r13d
   41a5c:	e9 26 fc ff ff       	jmp    41687 <syscall_fork()+0x3b>

0000000000041a61 <sys_kill(int)>:

int sys_kill(pid_t target_pid) {
   41a61:	f3 0f 1e fa          	endbr64
   41a65:	55                   	push   %rbp
   41a66:	48 89 e5             	mov    %rsp,%rbp
   41a69:	41 54                	push   %r12
   41a6b:	53                   	push   %rbx
    if (ptable[target_pid].state = P_FREE) {
   41a6c:	48 63 ff             	movslq %edi,%rdi
   41a6f:	48 8d 1c 7f          	lea    (%rdi,%rdi,2),%rbx
   41a73:	4c 8d 24 dd 00 00 00 	lea    0x0(,%rbx,8),%r12
   41a7a:	00 
   41a7b:	4a 8d 04 23          	lea    (%rbx,%r12,1),%rax
   41a7f:	c7 04 c5 2c 42 06 00 	movl   $0x0,0x6422c(,%rax,8)
   41a86:	00 00 00 00 
        return -1;
    }

    free_everything(ptable[target_pid].pagetable);
   41a8a:	48 8b 3c c5 20 42 06 	mov    0x64220(,%rax,8),%rdi
   41a91:	00 
   41a92:	e8 15 fa ff ff       	call   414ac <free_everything(x86_64_pagetable*)>

    ptable[target_pid].state = P_FREE;
   41a97:	4a 8d 04 23          	lea    (%rbx,%r12,1),%rax
   41a9b:	c7 04 c5 2c 42 06 00 	movl   $0x0,0x6422c(,%rax,8)
   41aa2:	00 00 00 00 
    ptable[target_pid].pagetable = nullptr;
   41aa6:	48 c7 04 c5 20 42 06 	movq   $0x0,0x64220(,%rax,8)
   41aad:	00 00 00 00 00 
    return 0; 
}
   41ab2:	b8 00 00 00 00       	mov    $0x0,%eax
   41ab7:	5b                   	pop    %rbx
   41ab8:	41 5c                	pop    %r12
   41aba:	5d                   	pop    %rbp
   41abb:	c3                   	ret

0000000000041abc <syscall_page_alloc(unsigned long)>:
// syscall_page_alloc(addr)
//    Handles the SYSCALL_PAGE_ALLOC system call. This function
//    should implement the specification for `sys_page_alloc`
//    in `u-lib.hh` (but in the handout code, it does not).

int syscall_page_alloc(uintptr_t addr) {
   41abc:	f3 0f 1e fa          	endbr64
   41ac0:	55                   	push   %rbp
   41ac1:	48 89 e5             	mov    %rsp,%rbp
   41ac4:	41 54                	push   %r12
   41ac6:	53                   	push   %rbx
   41ac7:	48 83 ec 20          	sub    $0x20,%rsp
    // checking address to allocate
    if (addr == 0 || addr < PROC_START_ADDR || addr >= MEMSIZE_VIRTUAL){ 
   41acb:	48 8d 87 00 00 f0 ff 	lea    -0x100000(%rdi),%rax
   41ad2:	48 3d ff ff 1f 00    	cmp    $0x1fffff,%rax
   41ad8:	0f 87 e5 00 00 00    	ja     41bc3 <syscall_page_alloc(unsigned long)+0x107>
   41ade:	48 89 fb             	mov    %rdi,%rbx
        return -1;
    }
    
    // allocating a page
    void* heap_ptr = (void*) kalloc(PAGESIZE);
   41ae1:	bf 00 10 00 00       	mov    $0x1000,%edi
   41ae6:	e8 7b f0 ff ff       	call   40b66 <kalloc(unsigned long)>
   41aeb:	49 89 c4             	mov    %rax,%r12
    if (!heap_ptr){
   41aee:	48 85 c0             	test   %rax,%rax
   41af1:	0f 84 d3 00 00 00    	je     41bca <syscall_page_alloc(unsigned long)+0x10e>
        return -1;
    }

    vmiter it(current->pagetable, addr);
   41af7:	48 8b 05 02 27 02 00 	mov    0x22702(%rip),%rax        # 64200 <current>
   41afe:	48 8b 00             	mov    (%rax),%rax
    : pt_(pt), pep_(&pt_->entry[0]), lbits_(initial_lbits),
   41b01:	48 89 45 d0          	mov    %rax,-0x30(%rbp)
   41b05:	48 89 45 d8          	mov    %rax,-0x28(%rbp)
   41b09:	c7 45 e0 27 00 00 00 	movl   $0x27,-0x20(%rbp)
      perm_(initial_perm), va_(0) {
   41b10:	c7 45 e4 ff 0f 00 00 	movl   $0xfff,-0x1c(%rbp)
   41b17:	48 c7 45 e8 00 00 00 	movq   $0x0,-0x18(%rbp)
   41b1e:	00 
    real_find(va, false);
   41b1f:	ba 00 00 00 00       	mov    $0x0,%edx
   41b24:	48 89 de             	mov    %rbx,%rsi
   41b27:	48 8d 7d d0          	lea    -0x30(%rbp),%rdi
   41b2b:	e8 f6 07 00 00       	call   42326 <vmiter::real_find(unsigned long, bool)>
    return try_map(reinterpret_cast<uintptr_t>(kp), perm);
   41b30:	ba 07 00 00 00       	mov    $0x7,%edx
   41b35:	4c 89 e6             	mov    %r12,%rsi
   41b38:	48 8d 7d d0          	lea    -0x30(%rbp),%rdi
   41b3c:	e8 17 09 00 00       	call   42458 <vmiter::try_map(unsigned long, int)>
   41b41:	89 c3                	mov    %eax,%ebx
    int r = it.try_map(heap_ptr, PTE_P | PTE_W | PTE_U);
    assert(r == 0);
   41b43:	85 c0                	test   %eax,%eax
   41b45:	75 63                	jne    41baa <syscall_page_alloc(unsigned long)+0xee>
    if (*pep_ & PTE_P) {
   41b47:	48 8b 45 d8          	mov    -0x28(%rbp),%rax
   41b4b:	48 8b 10             	mov    (%rax),%rdx
        return -1;
   41b4e:	48 c7 c7 ff ff ff ff 	mov    $0xffffffffffffffff,%rdi
    if (*pep_ & PTE_P) {
   41b55:	f6 c2 01             	test   $0x1,%dl
   41b58:	74 36                	je     41b90 <syscall_page_alloc(unsigned long)+0xd4>
        if (lbits_ > PAGEOFFBITS) {
   41b5a:	8b 4d e0             	mov    -0x20(%rbp),%ecx
            pa &= ~0x1000UL;
   41b5d:	48 b8 00 e0 ff ff ff 	movabs $0xfffffffffe000,%rax
   41b64:	ff 0f 00 
   41b67:	48 21 d0             	and    %rdx,%rax
        if (lbits_ > PAGEOFFBITS) {
   41b6a:	83 f9 0c             	cmp    $0xc,%ecx
   41b6d:	7f 0d                	jg     41b7c <syscall_page_alloc(unsigned long)+0xc0>
        uintptr_t pa = *pep_ & PTE_PAMASK;
   41b6f:	48 b8 00 f0 ff ff ff 	movabs $0xffffffffff000,%rax
   41b76:	ff 0f 00 
   41b79:	48 21 d0             	and    %rdx,%rax
    return ~(~uintptr_t(0) << lbits);
   41b7c:	48 c7 c7 ff ff ff ff 	mov    $0xffffffffffffffff,%rdi
   41b83:	48 d3 e7             	shl    %cl,%rdi
   41b86:	48 f7 d7             	not    %rdi
        return pa + (va_ & lbits_mask(lbits_));
   41b89:	48 23 7d e8          	and    -0x18(%rbp),%rdi
   41b8d:	48 01 c7             	add    %rax,%rdi

    memset((void*) it.pa(), 0, PAGESIZE);
   41b90:	ba 00 10 00 00       	mov    $0x1000,%edx
   41b95:	be 00 00 00 00       	mov    $0x0,%esi
   41b9a:	e8 13 36 00 00       	call   451b2 <memset>
    return 0;
    
}
   41b9f:	89 d8                	mov    %ebx,%eax
   41ba1:	48 83 c4 20          	add    $0x20,%rsp
   41ba5:	5b                   	pop    %rbx
   41ba6:	41 5c                	pop    %r12
   41ba8:	5d                   	pop    %rbp
   41ba9:	c3                   	ret
    assert(r == 0);
   41baa:	b9 00 00 00 00       	mov    $0x0,%ecx
   41baf:	ba 1b 5f 04 00       	mov    $0x45f1b,%edx
   41bb4:	be 42 02 00 00       	mov    $0x242,%esi
   41bb9:	bf fe 5e 04 00       	mov    $0x45efe,%edi
   41bbe:	e8 fa 1a 00 00       	call   436bd <assert_fail(char const*, int, char const*, char const*)>
        return -1;
   41bc3:	bb ff ff ff ff       	mov    $0xffffffff,%ebx
   41bc8:	eb d5                	jmp    41b9f <syscall_page_alloc(unsigned long)+0xe3>
        return -1;
   41bca:	bb ff ff ff ff       	mov    $0xffffffff,%ebx
   41bcf:	eb ce                	jmp    41b9f <syscall_page_alloc(unsigned long)+0xe3>

0000000000041bd1 <run(proc*)>:

// run(p)
//    Run process `p`. This involves setting `current = p` and calling
//    `exception_return` to restore its page table and registers.

void run(proc* p) {
   41bd1:	f3 0f 1e fa          	endbr64
   41bd5:	55                   	push   %rbp
   41bd6:	48 89 e5             	mov    %rsp,%rbp
   41bd9:	53                   	push   %rbx
   41bda:	48 83 ec 08          	sub    $0x8,%rsp
    assert(p->state == P_RUNNABLE);
   41bde:	83 7f 0c 01          	cmpl   $0x1,0xc(%rdi)
   41be2:	75 1f                	jne    41c03 <run(proc*)+0x32>
   41be4:	48 89 fb             	mov    %rdi,%rbx
    current = p;
   41be7:	48 89 3d 12 26 02 00 	mov    %rdi,0x22612(%rip)        # 64200 <current>

    // Check the process's current registers.
    check_process_registers(p);
   41bee:	e8 5d 20 00 00       	call   43c50 <check_process_registers(proc const*)>

    // Check the process's current pagetable.
    check_pagetable(p->pagetable);
   41bf3:	48 8b 3b             	mov    (%rbx),%rdi
   41bf6:	e8 cf 20 00 00       	call   43cca <check_pagetable(x86_64_pagetable*)>

    // This function is defined in k-exception.S. It restores the process's
    // registers then jumps back to user mode.
    exception_return(p);
   41bfb:	48 89 df             	mov    %rbx,%rdi
   41bfe:	e8 9c ee ff ff       	call   40a9f <exception_return(proc*)>
    assert(p->state == P_RUNNABLE);
   41c03:	b9 00 00 00 00       	mov    $0x0,%ecx
   41c08:	ba 38 5f 04 00       	mov    $0x45f38,%edx
   41c0d:	be 66 02 00 00       	mov    $0x266,%esi
   41c12:	bf fe 5e 04 00       	mov    $0x45efe,%edi
   41c17:	e8 a1 1a 00 00       	call   436bd <assert_fail(char const*, int, char const*, char const*)>

0000000000041c1c <kernel_start(char const*)>:
void kernel_start(const char* command) {
   41c1c:	f3 0f 1e fa          	endbr64
   41c20:	55                   	push   %rbp
   41c21:	48 89 e5             	mov    %rsp,%rbp
   41c24:	41 55                	push   %r13
   41c26:	41 54                	push   %r12
   41c28:	53                   	push   %rbx
   41c29:	48 83 ec 38          	sub    $0x38,%rsp
   41c2d:	49 89 fd             	mov    %rdi,%r13
    init_hardware();
   41c30:	e8 4d 1b 00 00       	call   43782 <init_hardware()>
    log_printf("Starting WeensyOS\n");
   41c35:	bf 5a 5f 04 00       	mov    $0x45f5a,%edi
   41c3a:	b8 00 00 00 00       	mov    $0x0,%eax
   41c3f:	e8 a6 10 00 00       	call   42cea <log_printf(char const*, ...)>
	  = __m & __memory_order_mask;
	__glibcxx_assert(__b != memory_order_acquire);
	__glibcxx_assert(__b != memory_order_acq_rel);
	__glibcxx_assert(__b != memory_order_consume);

	__atomic_store_n(&_M_i, __i, int(__m));
   41c44:	b8 01 00 00 00       	mov    $0x1,%eax
   41c49:	48 87 05 58 33 02 00 	xchg   %rax,0x23358(%rip)        # 64fa8 <ticks>
    init_timer(HZ);
   41c50:	bf 64 00 00 00       	mov    $0x64,%edi
   41c55:	e8 79 0d 00 00       	call   429d3 <init_timer(int)>
    console_clear();
   41c5a:	e8 bb 3f 00 00       	call   45c1a <console_clear()>
    for (uintptr_t addr = 0; addr < MEMSIZE_PHYSICAL; addr += PAGESIZE) {
   41c5f:	bb 00 00 00 00       	mov    $0x0,%ebx
   41c64:	e9 b5 00 00 00       	jmp    41d1e <kernel_start(char const*)+0x102>
        assert(r == 0); // mappings during kernel_start MUST NOT fail
   41c69:	b9 00 00 00 00       	mov    $0x0,%ecx
   41c6e:	ba 1b 5f 04 00       	mov    $0x45f1b,%edx
   41c73:	be 4c 00 00 00       	mov    $0x4c,%esi
   41c78:	bf fe 5e 04 00       	mov    $0x45efe,%edi
   41c7d:	e8 3b 1a 00 00       	call   436bd <assert_fail(char const*, int, char const*, char const*)>
        process_setup(1, "allocator");
   41c82:	be 6d 5f 04 00       	mov    $0x45f6d,%esi
   41c87:	bf 01 00 00 00       	mov    $0x1,%edi
   41c8c:	e8 0a f1 ff ff       	call   40d9b <process_setup(int, char const*)>
        process_setup(2, "allocator2");
   41c91:	be 77 5f 04 00       	mov    $0x45f77,%esi
   41c96:	bf 02 00 00 00       	mov    $0x2,%edi
   41c9b:	e8 fb f0 ff ff       	call   40d9b <process_setup(int, char const*)>
        process_setup(3, "allocator3");
   41ca0:	be 82 5f 04 00       	mov    $0x45f82,%esi
   41ca5:	bf 03 00 00 00       	mov    $0x3,%edi
   41caa:	e8 ec f0 ff ff       	call   40d9b <process_setup(int, char const*)>
        process_setup(4, "allocator4");
   41caf:	be 8d 5f 04 00       	mov    $0x45f8d,%esi
   41cb4:	bf 04 00 00 00       	mov    $0x4,%edi
   41cb9:	e8 dd f0 ff ff       	call   40d9b <process_setup(int, char const*)>
   41cbe:	e9 2b 01 00 00       	jmp    41dee <kernel_start(char const*)+0x1d2>
            perm = 0;
   41cc3:	41 bc 00 00 00 00    	mov    $0x0,%r12d
    : pt_(pt), pep_(&pt_->entry[0]), lbits_(initial_lbits),
   41cc9:	48 c7 45 b8 00 60 06 	movq   $0x66000,-0x48(%rbp)
   41cd0:	00 
   41cd1:	48 c7 45 c0 00 60 06 	movq   $0x66000,-0x40(%rbp)
   41cd8:	00 
   41cd9:	c7 45 c8 27 00 00 00 	movl   $0x27,-0x38(%rbp)
      perm_(initial_perm), va_(0) {
   41ce0:	c7 45 cc ff 0f 00 00 	movl   $0xfff,-0x34(%rbp)
   41ce7:	48 c7 45 d0 00 00 00 	movq   $0x0,-0x30(%rbp)
   41cee:	00 
    real_find(va, false);
   41cef:	ba 00 00 00 00       	mov    $0x0,%edx
   41cf4:	48 89 de             	mov    %rbx,%rsi
   41cf7:	48 8d 7d b8          	lea    -0x48(%rbp),%rdi
   41cfb:	e8 26 06 00 00       	call   42326 <vmiter::real_find(unsigned long, bool)>
        int r = vmiter(kernel_pagetable, addr).try_map(addr, perm);
   41d00:	44 89 e2             	mov    %r12d,%edx
   41d03:	48 89 de             	mov    %rbx,%rsi
   41d06:	48 8d 7d b8          	lea    -0x48(%rbp),%rdi
   41d0a:	e8 49 07 00 00       	call   42458 <vmiter::try_map(unsigned long, int)>
        assert(r == 0); // mappings during kernel_start MUST NOT fail
   41d0f:	85 c0                	test   %eax,%eax
   41d11:	0f 85 52 ff ff ff    	jne    41c69 <kernel_start(char const*)+0x4d>
    for (uintptr_t addr = 0; addr < MEMSIZE_PHYSICAL; addr += PAGESIZE) {
   41d17:	48 81 c3 00 10 00 00 	add    $0x1000,%rbx
        if (addr == 0) {
   41d1e:	48 85 db             	test   %rbx,%rbx
   41d21:	74 a0                	je     41cc3 <kernel_start(char const*)+0xa7>
        } else if (addr < PROC_START_ADDR && addr != CONSOLE_ADDR){
   41d23:	48 81 fb ff ff 0f 00 	cmp    $0xfffff,%rbx
   41d2a:	77 0f                	ja     41d3b <kernel_start(char const*)+0x11f>
            perm = PTE_P | PTE_W;
   41d2c:	41 bc 03 00 00 00    	mov    $0x3,%r12d
        } else if (addr < PROC_START_ADDR && addr != CONSOLE_ADDR){
   41d32:	48 81 fb 00 80 0b 00 	cmp    $0xb8000,%rbx
   41d39:	75 8e                	jne    41cc9 <kernel_start(char const*)+0xad>
    : pt_(pt), pep_(&pt_->entry[0]), lbits_(initial_lbits),
   41d3b:	48 c7 45 b8 00 60 06 	movq   $0x66000,-0x48(%rbp)
   41d42:	00 
   41d43:	48 c7 45 c0 00 60 06 	movq   $0x66000,-0x40(%rbp)
   41d4a:	00 
   41d4b:	c7 45 c8 27 00 00 00 	movl   $0x27,-0x38(%rbp)
      perm_(initial_perm), va_(0) {
   41d52:	c7 45 cc ff 0f 00 00 	movl   $0xfff,-0x34(%rbp)
   41d59:	48 c7 45 d0 00 00 00 	movq   $0x0,-0x30(%rbp)
   41d60:	00 
    real_find(va, false);
   41d61:	ba 00 00 00 00       	mov    $0x0,%edx
   41d66:	48 89 de             	mov    %rbx,%rsi
   41d69:	48 8d 7d b8          	lea    -0x48(%rbp),%rdi
   41d6d:	e8 b4 05 00 00       	call   42326 <vmiter::real_find(unsigned long, bool)>
        int r = vmiter(kernel_pagetable, addr).try_map(addr, perm);
   41d72:	ba 07 00 00 00       	mov    $0x7,%edx
   41d77:	48 89 de             	mov    %rbx,%rsi
   41d7a:	48 8d 7d b8          	lea    -0x48(%rbp),%rdi
   41d7e:	e8 d5 06 00 00       	call   42458 <vmiter::try_map(unsigned long, int)>
        assert(r == 0); // mappings during kernel_start MUST NOT fail
   41d83:	85 c0                	test   %eax,%eax
   41d85:	0f 85 de fe ff ff    	jne    41c69 <kernel_start(char const*)+0x4d>
    for (uintptr_t addr = 0; addr < MEMSIZE_PHYSICAL; addr += PAGESIZE) {
   41d8b:	48 81 c3 00 10 00 00 	add    $0x1000,%rbx
   41d92:	48 81 fb 00 00 20 00 	cmp    $0x200000,%rbx
   41d99:	75 83                	jne    41d1e <kernel_start(char const*)+0x102>
   41d9b:	ba 28 42 06 00       	mov    $0x64228,%edx
        ptable[i].pid = i;
   41da0:	89 02                	mov    %eax,(%rdx)
        ptable[i].state = P_FREE;
   41da2:	c7 42 04 00 00 00 00 	movl   $0x0,0x4(%rdx)
    for (pid_t i = 0; i < PID_MAX; i++) {
   41da9:	83 c0 01             	add    $0x1,%eax
   41dac:	48 81 c2 d8 00 00 00 	add    $0xd8,%rdx
   41db3:	83 f8 10             	cmp    $0x10,%eax
   41db6:	75 e8                	jne    41da0 <kernel_start(char const*)+0x184>
        command = WEENSYOS_FIRST_PROCESS;
   41db8:	4d 85 ed             	test   %r13,%r13
   41dbb:	b8 4f 5f 04 00       	mov    $0x45f4f,%eax
   41dc0:	4c 0f 44 e8          	cmove  %rax,%r13
    if (!program_image(command).empty()) {
   41dc4:	4c 89 ee             	mov    %r13,%rsi
   41dc7:	48 8d 7d d8          	lea    -0x28(%rbp),%rdi
   41dcb:	e8 14 26 00 00       	call   443e4 <program_image::program_image(char const*)>
   41dd0:	48 8d 7d d8          	lea    -0x28(%rbp),%rdi
   41dd4:	e8 49 26 00 00       	call   44422 <program_image::empty() const>
   41dd9:	84 c0                	test   %al,%al
   41ddb:	0f 85 a1 fe ff ff    	jne    41c82 <kernel_start(char const*)+0x66>
        process_setup(1, command);
   41de1:	4c 89 ee             	mov    %r13,%rsi
   41de4:	bf 01 00 00 00       	mov    $0x1,%edi
   41de9:	e8 ad ef ff ff       	call   40d9b <process_setup(int, char const*)>
    run(&ptable[1]);
   41dee:	bf f8 42 06 00       	mov    $0x642f8,%edi
   41df3:	e8 d9 fd ff ff       	call   41bd1 <run(proc*)>

0000000000041df8 <memshow()>:
// memshow()
//    Draw a picture of memory (physical and virtual) on the CGA console.
//    Switches to a new process's virtual memory map every 0.25 sec.
//    Uses `console_memviewer()`, a function defined in `k-memviewer.cc`.

void memshow() {
   41df8:	f3 0f 1e fa          	endbr64
   41dfc:	55                   	push   %rbp
   41dfd:	48 89 e5             	mov    %rsp,%rbp
    static unsigned last_ticks = 0;
    static int showing = 0;

    // switch to a new process every 0.25 sec
    if (last_ticks == 0 || ticks - last_ticks >= HZ / 2) {
   41e00:	83 3d 9d 31 02 00 00 	cmpl   $0x0,0x2319d(%rip)        # 64fa4 <memshow()::last_ticks>
   41e07:	74 16                	je     41e1f <memshow()+0x27>
	memory_order __b __attribute__ ((__unused__))
	  = __m & __memory_order_mask;
	__glibcxx_assert(__b != memory_order_release);
	__glibcxx_assert(__b != memory_order_acq_rel);

	return __atomic_load_n(&_M_i, int(__m));
   41e09:	48 8b 05 98 31 02 00 	mov    0x23198(%rip),%rax        # 64fa8 <ticks>
   41e10:	8b 15 8e 31 02 00    	mov    0x2318e(%rip),%edx        # 64fa4 <memshow()::last_ticks>
   41e16:	48 29 d0             	sub    %rdx,%rax
   41e19:	48 83 f8 31          	cmp    $0x31,%rax
   41e1d:	76 27                	jbe    41e46 <memshow()+0x4e>
   41e1f:	48 8b 05 82 31 02 00 	mov    0x23182(%rip),%rax        # 64fa8 <ticks>
        last_ticks = ticks;
   41e26:	89 05 78 31 02 00    	mov    %eax,0x23178(%rip)        # 64fa4 <memshow()::last_ticks>
        showing = (showing + 1) % PID_MAX;
   41e2c:	8b 05 6e 31 02 00    	mov    0x2316e(%rip),%eax        # 64fa0 <memshow()::showing>
   41e32:	83 c0 01             	add    $0x1,%eax
   41e35:	99                   	cltd
   41e36:	c1 ea 1c             	shr    $0x1c,%edx
   41e39:	01 d0                	add    %edx,%eax
   41e3b:	83 e0 0f             	and    $0xf,%eax
   41e3e:	29 d0                	sub    %edx,%eax
   41e40:	89 05 5a 31 02 00    	mov    %eax,0x2315a(%rip)        # 64fa0 <memshow()::showing>
    }

    proc* p = nullptr;
    for (int search = 0; !p && search < PID_MAX; ++search) {
   41e46:	8b 05 54 31 02 00    	mov    0x23154(%rip),%eax        # 64fa0 <memshow()::showing>
void memshow() {
   41e4c:	be 10 00 00 00       	mov    $0x10,%esi
   41e51:	b9 00 00 00 00       	mov    $0x0,%ecx
   41e56:	bf 01 00 00 00       	mov    $0x1,%edi
   41e5b:	eb 1c                	jmp    41e79 <memshow()+0x81>
        if (ptable[showing].state != P_FREE
            && ptable[showing].pagetable) {
            p = &ptable[showing];
        } else {
            showing = (showing + 1) % PID_MAX;
   41e5d:	83 c0 01             	add    $0x1,%eax
   41e60:	89 c1                	mov    %eax,%ecx
   41e62:	c1 f9 1f             	sar    $0x1f,%ecx
   41e65:	c1 e9 1c             	shr    $0x1c,%ecx
   41e68:	8d 14 08             	lea    (%rax,%rcx,1),%edx
   41e6b:	83 e2 0f             	and    $0xf,%edx
   41e6e:	29 ca                	sub    %ecx,%edx
   41e70:	89 d0                	mov    %edx,%eax
    for (int search = 0; !p && search < PID_MAX; ++search) {
   41e72:	89 f9                	mov    %edi,%ecx
   41e74:	83 ee 01             	sub    $0x1,%esi
   41e77:	74 4e                	je     41ec7 <memshow()+0xcf>
        if (ptable[showing].state != P_FREE
   41e79:	48 63 d0             	movslq %eax,%rdx
   41e7c:	48 8d 14 52          	lea    (%rdx,%rdx,2),%rdx
   41e80:	48 8d 14 d2          	lea    (%rdx,%rdx,8),%rdx
   41e84:	83 3c d5 2c 42 06 00 	cmpl   $0x0,0x6422c(,%rdx,8)
   41e8b:	00 
   41e8c:	74 cf                	je     41e5d <memshow()+0x65>
            && ptable[showing].pagetable) {
   41e8e:	48 63 d0             	movslq %eax,%rdx
   41e91:	48 8d 14 52          	lea    (%rdx,%rdx,2),%rdx
   41e95:	48 8d 14 d2          	lea    (%rdx,%rdx,8),%rdx
   41e99:	48 83 3c d5 20 42 06 	cmpq   $0x0,0x64220(,%rdx,8)
   41ea0:	00 00 
   41ea2:	74 b9                	je     41e5d <memshow()+0x65>
   41ea4:	84 c9                	test   %cl,%cl
   41ea6:	74 06                	je     41eae <memshow()+0xb6>
   41ea8:	89 05 f2 30 02 00    	mov    %eax,0x230f2(%rip)        # 64fa0 <memshow()::showing>
            p = &ptable[showing];
   41eae:	48 98                	cltq
   41eb0:	48 8d 04 40          	lea    (%rax,%rax,2),%rax
   41eb4:	48 8d 04 c0          	lea    (%rax,%rax,8),%rax
   41eb8:	48 8d 3c c5 20 42 06 	lea    0x64220(,%rax,8),%rdi
   41ebf:	00 
        }
    }

    console_memviewer(p);
   41ec0:	e8 97 2f 00 00       	call   44e5c <console_memviewer(proc*)>
    if (!p) {
        console_printf(CPOS(10, 26), 0x0F00, "   VIRTUAL ADDRESS SPACE\n"
            "                          [All processes have exited]\n"
            "\n\n\n\n\n\n\n\n\n\n\n");
    }
   41ec5:	5d                   	pop    %rbp
   41ec6:	c3                   	ret
   41ec7:	89 15 d3 30 02 00    	mov    %edx,0x230d3(%rip)        # 64fa0 <memshow()::showing>
    console_memviewer(p);
   41ecd:	bf 00 00 00 00       	mov    $0x0,%edi
   41ed2:	e8 85 2f 00 00       	call   44e5c <console_memviewer(proc*)>
        console_printf(CPOS(10, 26), 0x0F00, "   VIRTUAL ADDRESS SPACE\n"
   41ed7:	ba d8 62 04 00       	mov    $0x462d8,%edx
   41edc:	be 00 0f 00 00       	mov    $0xf00,%esi
   41ee1:	bf 3a 03 00 00       	mov    $0x33a,%edi
   41ee6:	b8 00 00 00 00       	mov    $0x0,%eax
   41eeb:	e8 55 3f 00 00       	call   45e45 <console_printf(int, int, char const*, ...)>
   41ef0:	eb d3                	jmp    41ec5 <memshow()+0xcd>

0000000000041ef2 <schedule()>:
void schedule() {
   41ef2:	f3 0f 1e fa          	endbr64
   41ef6:	55                   	push   %rbp
   41ef7:	48 89 e5             	mov    %rsp,%rbp
   41efa:	41 54                	push   %r12
   41efc:	53                   	push   %rbx
    pid_t pid = current->pid;
   41efd:	48 8b 05 fc 22 02 00 	mov    0x222fc(%rip),%rax        # 64200 <current>
        pid = (pid + 1) % PID_MAX;
   41f04:	8b 40 08             	mov    0x8(%rax),%eax
   41f07:	83 c0 01             	add    $0x1,%eax
   41f0a:	99                   	cltd
   41f0b:	c1 ea 1c             	shr    $0x1c,%edx
   41f0e:	01 d0                	add    %edx,%eax
   41f10:	83 e0 0f             	and    $0xf,%eax
   41f13:	29 d0                	sub    %edx,%eax
   41f15:	41 89 c4             	mov    %eax,%r12d
        if (ptable[pid].state == P_RUNNABLE) {
   41f18:	48 98                	cltq
   41f1a:	48 8d 04 40          	lea    (%rax,%rax,2),%rax
   41f1e:	48 8d 04 c0          	lea    (%rax,%rax,8),%rax
    for (unsigned spins = 1; true; ++spins) {
   41f22:	bb 01 00 00 00       	mov    $0x1,%ebx
        if (ptable[pid].state == P_RUNNABLE) {
   41f27:	83 3c c5 2c 42 06 00 	cmpl   $0x1,0x6422c(,%rax,8)
   41f2e:	01 
   41f2f:	75 42                	jne    41f73 <schedule()+0x81>
            run(&ptable[pid]);
   41f31:	4d 63 e4             	movslq %r12d,%r12
   41f34:	4b 8d 04 64          	lea    (%r12,%r12,2),%rax
   41f38:	48 8d 04 c0          	lea    (%rax,%rax,8),%rax
   41f3c:	48 8d 3c c5 20 42 06 	lea    0x64220(,%rax,8),%rdi
   41f43:	00 
   41f44:	e8 88 fc ff ff       	call   41bd1 <run(proc*)>
    for (unsigned spins = 1; true; ++spins) {
   41f49:	83 c3 01             	add    $0x1,%ebx
        pid = (pid + 1) % PID_MAX;
   41f4c:	41 8d 44 24 01       	lea    0x1(%r12),%eax
   41f51:	99                   	cltd
   41f52:	c1 ea 1c             	shr    $0x1c,%edx
   41f55:	01 d0                	add    %edx,%eax
   41f57:	83 e0 0f             	and    $0xf,%eax
   41f5a:	29 d0                	sub    %edx,%eax
   41f5c:	41 89 c4             	mov    %eax,%r12d
        if (ptable[pid].state == P_RUNNABLE) {
   41f5f:	48 98                	cltq
   41f61:	48 8d 04 40          	lea    (%rax,%rax,2),%rax
   41f65:	48 8d 04 c0          	lea    (%rax,%rax,8),%rax
   41f69:	83 3c c5 2c 42 06 00 	cmpl   $0x1,0x6422c(,%rax,8)
   41f70:	01 
   41f71:	74 be                	je     41f31 <schedule()+0x3f>
        check_keyboard();
   41f73:	e8 27 21 00 00       	call   4409f <check_keyboard()>
        if (spins % (1 << 12) == 0) {
   41f78:	f7 c3 ff 0f 00 00    	test   $0xfff,%ebx
   41f7e:	75 c9                	jne    41f49 <schedule()+0x57>
            memshow();
   41f80:	e8 73 fe ff ff       	call   41df8 <memshow()>
   41f85:	eb c2                	jmp    41f49 <schedule()+0x57>

0000000000041f87 <sys_sleep(unsigned int)>:
int sys_sleep(unsigned int sleep) {
   41f87:	f3 0f 1e fa          	endbr64
    if (sleep == 0) {
   41f8b:	85 ff                	test   %edi,%edi
   41f8d:	74 59                	je     41fe8 <sys_sleep(unsigned int)+0x61>
   41f8f:	48 8b 05 12 30 02 00 	mov    0x23012(%rip),%rax        # 64fa8 <ticks>
    current->sleeping_ticks = ticks + sleep;  
   41f96:	01 f8                	add    %edi,%eax
   41f98:	48 8b 15 61 22 02 00 	mov    0x22261(%rip),%rdx        # 64200 <current>
   41f9f:	89 82 d0 00 00 00    	mov    %eax,0xd0(%rdx)
   41fa5:	48 8b 05 fc 2f 02 00 	mov    0x22ffc(%rip),%rax        # 64fa8 <ticks>
   41fac:	48 8b 15 f5 2f 02 00 	mov    0x22ff5(%rip),%rdx        # 64fa8 <ticks>
    while (ticks < ticks + sleep) {
   41fb3:	89 ff                	mov    %edi,%edi
   41fb5:	48 01 d7             	add    %rdx,%rdi
   41fb8:	48 39 f8             	cmp    %rdi,%rax
   41fbb:	72 14                	jb     41fd1 <sys_sleep(unsigned int)+0x4a>
    current->state = P_RUNNABLE;
   41fbd:	48 8b 05 3c 22 02 00 	mov    0x2223c(%rip),%rax        # 64200 <current>
   41fc4:	c7 40 0c 01 00 00 00 	movl   $0x1,0xc(%rax)
    return 0;
   41fcb:	b8 00 00 00 00       	mov    $0x0,%eax
   41fd0:	c3                   	ret
int sys_sleep(unsigned int sleep) {
   41fd1:	55                   	push   %rbp
   41fd2:	48 89 e5             	mov    %rsp,%rbp
        current->state = P_SLEEPING;  
   41fd5:	48 8b 05 24 22 02 00 	mov    0x22224(%rip),%rax        # 64200 <current>
   41fdc:	c7 40 0c 04 00 00 00 	movl   $0x4,0xc(%rax)
        schedule();  
   41fe3:	e8 0a ff ff ff       	call   41ef2 <schedule()>
        return -1;
   41fe8:	b8 ff ff ff ff       	mov    $0xffffffff,%eax
}
   41fed:	c3                   	ret

0000000000041fee <exception(regstate*)>:
void exception(regstate* regs) {
   41fee:	f3 0f 1e fa          	endbr64
   41ff2:	55                   	push   %rbp
   41ff3:	48 89 e5             	mov    %rsp,%rbp
   41ff6:	53                   	push   %rbx
   41ff7:	48 83 ec 08          	sub    $0x8,%rsp
   41ffb:	48 89 fe             	mov    %rdi,%rsi
    current->regs = *regs;
   41ffe:	48 8b 1d fb 21 02 00 	mov    0x221fb(%rip),%rbx        # 64200 <current>
   42005:	48 8d 7b 10          	lea    0x10(%rbx),%rdi
   42009:	b9 18 00 00 00       	mov    $0x18,%ecx
   4200e:	f3 48 a5             	rep movsq %ds:(%rsi),%es:(%rdi)
    console_show_cursor(cursorpos);
   42011:	8b 3d e5 6f 07 00    	mov    0x76fe5(%rip),%edi        # b8ffc <cursorpos>
   42017:	e8 1c 0b 00 00       	call   42b38 <console_show_cursor(int)>
    if (regs->reg_intno != INT_PF || (regs->reg_errcode & PTE_U)) {
   4201c:	83 bb 98 00 00 00 0e 	cmpl   $0xe,0x98(%rbx)
   42023:	75 09                	jne    4202e <exception(regstate*)+0x40>
   42025:	f6 83 a0 00 00 00 04 	testb  $0x4,0xa0(%rbx)
   4202c:	74 05                	je     42033 <exception(regstate*)+0x45>
        memshow();
   4202e:	e8 c5 fd ff ff       	call   41df8 <memshow()>
    check_keyboard();
   42033:	e8 67 20 00 00       	call   4409f <check_keyboard()>
    log_printf("2: inside kernel::exception(), going to run process %d %d\n", current->pid, current->state);
   42038:	48 8b 05 c1 21 02 00 	mov    0x221c1(%rip),%rax        # 64200 <current>
   4203f:	8b 50 0c             	mov    0xc(%rax),%edx
   42042:	8b 70 08             	mov    0x8(%rax),%esi
   42045:	bf 38 63 04 00       	mov    $0x46338,%edi
   4204a:	b8 00 00 00 00       	mov    $0x0,%eax
   4204f:	e8 96 0c 00 00       	call   42cea <log_printf(char const*, ...)>
    switch (regs->reg_intno) {
   42054:	8b 93 98 00 00 00    	mov    0x98(%rbx),%edx
   4205a:	83 fa 0e             	cmp    $0xe,%edx
   4205d:	74 22                	je     42081 <exception(regstate*)+0x93>
   4205f:	83 fa 20             	cmp    $0x20,%edx
   42062:	0f 85 00 01 00 00    	jne    42168 <exception(regstate*)+0x17a>
      { return __atomic_add_fetch(&_M_i, 1, int(memory_order_seq_cst)); }
   42068:	f0 48 83 05 37 2f 02 	lock addq $0x1,0x22f37(%rip)        # 64fa8 <ticks>
   4206f:	00 01 
}
inline uint32_t lapicstate::read(int reg) const {
    return reg_[reg].v;
}
inline void lapicstate::write(int reg, uint32_t v) {
    reg_[reg].v = v;
   42071:	b8 b0 00 e0 fe       	mov    $0xfee000b0,%eax
   42076:	c7 00 00 00 00 00    	movl   $0x0,(%rax)
        schedule();
   4207c:	e8 71 fe ff ff       	call   41ef2 <schedule()>
    asm volatile("movq %0, %%cr0" : : "r" (x));
}

__always_inline uintptr_t rdcr2() {
    uintptr_t x;
    asm volatile("movq %%cr2, %0" : "=r" (x));
   42081:	0f 20 d2             	mov    %cr2,%rdx
        const char* operation = regs->reg_errcode & PTE_W
   42084:	48 8b 83 a0 00 00 00 	mov    0xa0(%rbx),%rax
                ? "write" : "read";
   4208b:	a8 02                	test   $0x2,%al
   4208d:	b9 9e 5f 04 00       	mov    $0x45f9e,%ecx
   42092:	be 98 5f 04 00       	mov    $0x45f98,%esi
   42097:	48 0f 45 ce          	cmovne %rsi,%rcx
                ? "protection problem" : "missing page";
   4209b:	a8 01                	test   $0x1,%al
   4209d:	41 b8 b6 5f 04 00    	mov    $0x45fb6,%r8d
   420a3:	be a3 5f 04 00       	mov    $0x45fa3,%esi
   420a8:	4c 0f 45 c6          	cmovne %rsi,%r8
        if (!(regs->reg_errcode & PTE_U)) {
   420ac:	a8 04                	test   $0x4,%al
   420ae:	75 1d                	jne    420cd <exception(regstate*)+0xdf>
            proc_panic(current, "Kernel page fault on %p (%s %s, rip=%p)!\n",
   420b0:	4c 8b 8b a8 00 00 00 	mov    0xa8(%rbx),%r9
   420b7:	be 78 63 04 00       	mov    $0x46378,%esi
   420bc:	48 8b 3d 3d 21 02 00 	mov    0x2213d(%rip),%rdi        # 64200 <current>
   420c3:	b8 00 00 00 00       	mov    $0x0,%eax
   420c8:	e8 f8 20 00 00       	call   441c5 <proc_panic(proc const*, char const*, ...)>
        error_printf(CPOS(24, 0), COLOR_ERROR,
   420cd:	48 8b 05 2c 21 02 00 	mov    0x2212c(%rip),%rax        # 64200 <current>
   420d4:	8b 40 08             	mov    0x8(%rax),%eax
   420d7:	ff b3 a8 00 00 00    	push   0xa8(%rbx)
   420dd:	41 50                	push   %r8
   420df:	49 89 c9             	mov    %rcx,%r9
   420e2:	41 89 c0             	mov    %eax,%r8d
   420e5:	48 89 d1             	mov    %rdx,%rcx
   420e8:	ba a8 63 04 00       	mov    $0x463a8,%edx
   420ed:	be 00 c0 00 00       	mov    $0xc000,%esi
   420f2:	bf 80 07 00 00       	mov    $0x780,%edi
   420f7:	b8 00 00 00 00       	mov    $0x0,%eax
   420fc:	e8 7e 3d 00 00       	call   45e7f <error_printf(int, int, char const*, ...)>
        log_print_backtrace(current);
   42101:	48 8b 3d f8 20 02 00 	mov    0x220f8(%rip),%rdi        # 64200 <current>
   42108:	e8 7e 15 00 00       	call   4368b <log_print_backtrace(proc const*)>
        current->state = P_FAULTED;
   4210d:	48 8b 05 ec 20 02 00 	mov    0x220ec(%rip),%rax        # 64200 <current>
   42114:	c7 40 0c 03 00 00 00 	movl   $0x3,0xc(%rax)
    log_printf("3: inside kernel::exception(), going to run process %d %d\n", current->pid, current->state);
   4211b:	8b 70 08             	mov    0x8(%rax),%esi
   4211e:	ba 03 00 00 00       	mov    $0x3,%edx
   42123:	bf d8 63 04 00       	mov    $0x463d8,%edi
   42128:	b8 00 00 00 00       	mov    $0x0,%eax
   4212d:	e8 b8 0b 00 00       	call   42cea <log_printf(char const*, ...)>
    if (current->state == P_RUNNABLE) {
   42132:	48 8b 05 c7 20 02 00 	mov    0x220c7(%rip),%rax        # 64200 <current>
   42139:	8b 50 0c             	mov    0xc(%rax),%edx
   4213c:	48 83 c4 10          	add    $0x10,%rsp
   42140:	83 fa 01             	cmp    $0x1,%edx
   42143:	75 40                	jne    42185 <exception(regstate*)+0x197>
       log_printf("4: inside kernel::exception(), going to run process %d %d\n", current->pid, current->state);
   42145:	8b 70 08             	mov    0x8(%rax),%esi
   42148:	ba 01 00 00 00       	mov    $0x1,%edx
   4214d:	bf 40 64 04 00       	mov    $0x46440,%edi
   42152:	b8 00 00 00 00       	mov    $0x0,%eax
   42157:	e8 8e 0b 00 00       	call   42cea <log_printf(char const*, ...)>
        run(current);
   4215c:	48 8b 3d 9d 20 02 00 	mov    0x2209d(%rip),%rdi        # 64200 <current>
   42163:	e8 69 fa ff ff       	call   41bd1 <run(proc*)>
        proc_panic(current, "Unhandled exception %d (rip=%p)!\n",
   42168:	48 8b 8b a8 00 00 00 	mov    0xa8(%rbx),%rcx
   4216f:	be 18 64 04 00       	mov    $0x46418,%esi
   42174:	48 8b 3d 85 20 02 00 	mov    0x22085(%rip),%rdi        # 64200 <current>
   4217b:	b8 00 00 00 00       	mov    $0x0,%eax
   42180:	e8 40 20 00 00       	call   441c5 <proc_panic(proc const*, char const*, ...)>
        log_printf("5: inside kernel::exception(), going to run process %d %d\n", current->pid, current->state);
   42185:	8b 70 08             	mov    0x8(%rax),%esi
   42188:	bf 80 64 04 00       	mov    $0x46480,%edi
   4218d:	b8 00 00 00 00       	mov    $0x0,%eax
   42192:	e8 53 0b 00 00       	call   42cea <log_printf(char const*, ...)>
        schedule();
   42197:	e8 56 fd ff ff       	call   41ef2 <schedule()>

000000000004219c <syscall(regstate*)>:
uintptr_t syscall(regstate* regs) {
   4219c:	f3 0f 1e fa          	endbr64
   421a0:	55                   	push   %rbp
   421a1:	48 89 e5             	mov    %rsp,%rbp
   421a4:	53                   	push   %rbx
   421a5:	48 83 ec 08          	sub    $0x8,%rsp
   421a9:	48 89 fe             	mov    %rdi,%rsi
    current->regs = *regs;
   421ac:	48 8b 1d 4d 20 02 00 	mov    0x2204d(%rip),%rbx        # 64200 <current>
   421b3:	48 8d 7b 10          	lea    0x10(%rbx),%rdi
   421b7:	b9 18 00 00 00       	mov    $0x18,%ecx
   421bc:	f3 48 a5             	rep movsq %ds:(%rsi),%es:(%rdi)
    console_show_cursor(cursorpos);
   421bf:	8b 3d 37 6e 07 00    	mov    0x76e37(%rip),%edi        # b8ffc <cursorpos>
   421c5:	e8 6e 09 00 00       	call   42b38 <console_show_cursor(int)>
    memshow();
   421ca:	e8 29 fc ff ff       	call   41df8 <memshow()>
    check_keyboard();
   421cf:	e8 cb 1e 00 00       	call   4409f <check_keyboard()>
    switch (regs->reg_rax) {
   421d4:	48 8b 53 10          	mov    0x10(%rbx),%rdx
   421d8:	48 83 fa 08          	cmp    $0x8,%rdx
   421dc:	0f 87 90 00 00 00    	ja     42272 <syscall(regstate*)+0xd6>
   421e2:	3e ff 24 d5 90 69 04 	notrack jmp *0x46990(,%rdx,8)
   421e9:	00 
        user_panic(current);
   421ea:	48 8b 3d 0f 20 02 00 	mov    0x2200f(%rip),%rdi        # 64200 <current>
   421f1:	e8 2d 20 00 00       	call   44223 <user_panic(proc const*)>
        return current->pid;
   421f6:	48 8b 05 03 20 02 00 	mov    0x22003(%rip),%rax        # 64200 <current>
   421fd:	48 63 40 08          	movslq 0x8(%rax),%rax
}
   42201:	48 8b 5d f8          	mov    -0x8(%rbp),%rbx
   42205:	c9                   	leave
   42206:	c3                   	ret
        current->regs.reg_rax = 0;
   42207:	48 8b 05 f2 1f 02 00 	mov    0x21ff2(%rip),%rax        # 64200 <current>
   4220e:	48 c7 40 10 00 00 00 	movq   $0x0,0x10(%rax)
   42215:	00 
        schedule();             // does not return
   42216:	e8 d7 fc ff ff       	call   41ef2 <schedule()>
        return syscall_page_alloc(current->regs.reg_rdi);
   4221b:	48 8b 05 de 1f 02 00 	mov    0x21fde(%rip),%rax        # 64200 <current>
   42222:	48 8b 78 40          	mov    0x40(%rax),%rdi
   42226:	e8 91 f8 ff ff       	call   41abc <syscall_page_alloc(unsigned long)>
   4222b:	48 98                	cltq
   4222d:	eb d2                	jmp    42201 <syscall(regstate*)+0x65>
        return syscall_fork();
   4222f:	e8 18 f4 ff ff       	call   4164c <syscall_fork()>
   42234:	48 98                	cltq
   42236:	eb c9                	jmp    42201 <syscall(regstate*)+0x65>
        sys_exit(current->pid);
   42238:	48 8b 05 c1 1f 02 00 	mov    0x21fc1(%rip),%rax        # 64200 <current>
   4223f:	8b 78 08             	mov    0x8(%rax),%edi
   42242:	e8 ba f3 ff ff       	call   41601 <sys_exit(int)>
        schedule();
   42247:	e8 a6 fc ff ff       	call   41ef2 <schedule()>
        return sys_sleep(current->regs.reg_rdi);
   4224c:	48 8b 05 ad 1f 02 00 	mov    0x21fad(%rip),%rax        # 64200 <current>
   42253:	8b 78 40             	mov    0x40(%rax),%edi
   42256:	e8 2c fd ff ff       	call   41f87 <sys_sleep(unsigned int)>
   4225b:	48 98                	cltq
   4225d:	eb a2                	jmp    42201 <syscall(regstate*)+0x65>
        return sys_kill(current->regs.reg_rdi);
   4225f:	48 8b 05 9a 1f 02 00 	mov    0x21f9a(%rip),%rax        # 64200 <current>
   42266:	8b 78 40             	mov    0x40(%rax),%edi
   42269:	e8 f3 f7 ff ff       	call   41a61 <sys_kill(int)>
   4226e:	48 98                	cltq
   42270:	eb 8f                	jmp    42201 <syscall(regstate*)+0x65>
        proc_panic(current, "Unhandled system call %ld (pid=%d, rip=%p)!\n",
   42272:	48 8b 3d 87 1f 02 00 	mov    0x21f87(%rip),%rdi        # 64200 <current>
   42279:	8b 4f 08             	mov    0x8(%rdi),%ecx
   4227c:	4c 8b 83 a8 00 00 00 	mov    0xa8(%rbx),%r8
   42283:	be c0 64 04 00       	mov    $0x464c0,%esi
   42288:	b8 00 00 00 00       	mov    $0x0,%eax
   4228d:	e8 33 1f 00 00       	call   441c5 <proc_panic(proc const*, char const*, ...)>

0000000000042292 <vmiter::down()>:
#include "k-vmiter.hh"
#include <atomic>

const x86_64_pageentry_t vmiter::zero_pe = 0;

void vmiter::down() {
   42292:	f3 0f 1e fa          	endbr64
   42296:	48 89 f8             	mov    %rdi,%rax
    while (lbits_ > PAGEOFFBITS && (*pep_ & (PTE_P | PTE_PS)) == PTE_P) {
   42299:	8b 4f 10             	mov    0x10(%rdi),%ecx
        perm_ &= *pep_ | ~(PTE_P | PTE_W | PTE_U);
        lbits_ -= PAGEINDEXBITS;
        uintptr_t pa = *pep_ & PTE_PAMASK;
   4229c:	49 b8 00 f0 ff ff ff 	movabs $0xffffffffff000,%r8
   422a3:	ff 0f 00 
    while (lbits_ > PAGEOFFBITS && (*pep_ & (PTE_P | PTE_PS)) == PTE_P) {
   422a6:	83 f9 0c             	cmp    $0xc,%ecx
   422a9:	7e 42                	jle    422ed <vmiter::down()+0x5b>
   422ab:	48 8b 70 08          	mov    0x8(%rax),%rsi
   422af:	48 8b 16             	mov    (%rsi),%rdx
   422b2:	48 89 d7             	mov    %rdx,%rdi
   422b5:	81 e7 81 00 00 00    	and    $0x81,%edi
   422bb:	48 83 ff 01          	cmp    $0x1,%rdi
   422bf:	75 2c                	jne    422ed <vmiter::down()+0x5b>
        perm_ &= *pep_ | ~(PTE_P | PTE_W | PTE_U);
   422c1:	83 ca f8             	or     $0xfffffff8,%edx
   422c4:	21 50 14             	and    %edx,0x14(%rax)
        lbits_ -= PAGEINDEXBITS;
   422c7:	83 e9 09             	sub    $0x9,%ecx
   422ca:	89 48 10             	mov    %ecx,0x10(%rax)
        uintptr_t pa = *pep_ & PTE_PAMASK;
   422cd:	4c 89 c7             	mov    %r8,%rdi
   422d0:	48 23 3e             	and    (%rsi),%rdi
        x86_64_pagetable* pt = reinterpret_cast<x86_64_pagetable*>(pa);
        pep_ = &pt->entry[(va_ >> lbits_) & 0x1FF];
   422d3:	48 8b 50 18          	mov    0x18(%rax),%rdx
   422d7:	48 d3 ea             	shr    %cl,%rdx
   422da:	81 e2 ff 01 00 00    	and    $0x1ff,%edx
   422e0:	48 8d 14 d7          	lea    (%rdi,%rdx,8),%rdx
   422e4:	48 89 50 08          	mov    %rdx,0x8(%rax)
    while (lbits_ > PAGEOFFBITS && (*pep_ & (PTE_P | PTE_PS)) == PTE_P) {
   422e8:	83 f9 0c             	cmp    $0xc,%ecx
   422eb:	7f be                	jg     422ab <vmiter::down()+0x19>
    }
    if ((*pep_ & PTE_PAMASK) >= 0x100000000UL
   422ed:	48 8b 50 08          	mov    0x8(%rax),%rdx
   422f1:	48 8b 32             	mov    (%rdx),%rsi
   422f4:	48 ba 00 f0 ff ff ff 	movabs $0xffffffffff000,%rdx
   422fb:	ff 0f 00 
   422fe:	48 21 f2             	and    %rsi,%rdx
        && lbits_ < PAGEOFFBITS + 2 * PAGEINDEXBITS) {
   42301:	48 c1 ea 20          	shr    $0x20,%rdx
   42305:	74 05                	je     4230c <vmiter::down()+0x7a>
   42307:	83 f9 1d             	cmp    $0x1d,%ecx
   4230a:	7e 01                	jle    4230d <vmiter::down()+0x7b>
   4230c:	c3                   	ret
void vmiter::down() {
   4230d:	55                   	push   %rbp
   4230e:	48 89 e5             	mov    %rsp,%rbp
        panic("Page table %p may contain uninitialized memory!\n"
   42311:	48 89 f2             	mov    %rsi,%rdx
   42314:	48 8b 30             	mov    (%rax),%rsi
   42317:	bf f0 64 04 00       	mov    $0x464f0,%edi
   4231c:	b8 00 00 00 00       	mov    $0x0,%eax
   42321:	e8 c1 1f 00 00       	call   442e7 <panic(char const*, ...)>

0000000000042326 <vmiter::real_find(unsigned long, bool)>:
              "(Page table contents: %p)\n", pt_, *pep_);
    }
}

void vmiter::real_find(uintptr_t va, bool stepping) {
   42326:	f3 0f 1e fa          	endbr64
   4232a:	55                   	push   %rbp
   4232b:	48 89 e5             	mov    %rsp,%rbp
   4232e:	48 89 f0             	mov    %rsi,%rax
    if (stepping && va == 0) {
   42331:	48 85 f6             	test   %rsi,%rsi
   42334:	75 26                	jne    4235c <vmiter::real_find(unsigned long, bool)+0x36>
   42336:	84 d2                	test   %dl,%dl
   42338:	74 22                	je     4235c <vmiter::real_find(unsigned long, bool)+0x36>
        lbits_ = done_lbits;
   4233a:	c7 47 10 40 00 00 00 	movl   $0x40,0x10(%rdi)
        perm_ = 0;
   42341:	c7 47 14 00 00 00 00 	movl   $0x0,0x14(%rdi)
        pep_ = const_cast<x86_64_pageentry_t*>(&zero_pe);
   42348:	ba d8 69 04 00       	mov    $0x469d8,%edx
   4234d:	48 89 57 08          	mov    %rdx,0x8(%rdi)
    } else {
        lbits_ = initial_lbits;
        perm_ = initial_perm;
        pep_ = &pt_->entry[(va >> lbits_) & 0x1FF];
    }
    va_ = va;
   42351:	48 89 47 18          	mov    %rax,0x18(%rdi)
    down();
   42355:	e8 38 ff ff ff       	call   42292 <vmiter::down()>
}
   4235a:	5d                   	pop    %rbp
   4235b:	c3                   	ret
    } else if (lbits_ < initial_lbits
   4235c:	8b 57 10             	mov    0x10(%rdi),%edx
   4235f:	83 fa 26             	cmp    $0x26,%edx
   42362:	7f 44                	jg     423a8 <vmiter::real_find(unsigned long, bool)+0x82>
               && ((va_ ^ va) & (~uintptr_t(0) << (lbits_ + PAGEINDEXBITS))) == 0) {
   42364:	49 89 c0             	mov    %rax,%r8
   42367:	4c 33 47 18          	xor    0x18(%rdi),%r8
   4236b:	8d 4a 09             	lea    0x9(%rdx),%ecx
   4236e:	48 c7 c6 ff ff ff ff 	mov    $0xffffffffffffffff,%rsi
   42375:	48 d3 e6             	shl    %cl,%rsi
   42378:	49 85 f0             	test   %rsi,%r8
   4237b:	75 2b                	jne    423a8 <vmiter::real_find(unsigned long, bool)+0x82>
        int curidx = (reinterpret_cast<uintptr_t>(pep_) % PAGESIZE) >> 3;
   4237d:	48 8b 77 08          	mov    0x8(%rdi),%rsi
        pep_ += ((va >> lbits_) & 0x1FF) - curidx;
   42381:	49 89 c1             	mov    %rax,%r9
   42384:	89 d1                	mov    %edx,%ecx
   42386:	49 d3 e9             	shr    %cl,%r9
   42389:	4c 89 ca             	mov    %r9,%rdx
   4238c:	81 e2 ff 01 00 00    	and    $0x1ff,%edx
        int curidx = (reinterpret_cast<uintptr_t>(pep_) % PAGESIZE) >> 3;
   42392:	48 89 f1             	mov    %rsi,%rcx
   42395:	48 c1 e9 03          	shr    $0x3,%rcx
        pep_ += ((va >> lbits_) & 0x1FF) - curidx;
   42399:	81 e1 ff 01 00 00    	and    $0x1ff,%ecx
   4239f:	48 29 ca             	sub    %rcx,%rdx
   423a2:	48 8d 14 d6          	lea    (%rsi,%rdx,8),%rdx
    } else if (!va_is_canonical(va)) {
   423a6:	eb a5                	jmp    4234d <vmiter::real_find(unsigned long, bool)+0x27>
    return va <= VA_LOWMAX || va >= VA_HIGHMIN;
   423a8:	48 ba 00 00 00 00 00 	movabs $0xffff800000000000,%rdx
   423af:	80 ff ff 
   423b2:	48 01 c2             	add    %rax,%rdx
   423b5:	48 b9 ff ff ff ff ff 	movabs $0xfffeffffffffffff,%rcx
   423bc:	ff fe ff 
   423bf:	48 39 d1             	cmp    %rdx,%rcx
   423c2:	72 18                	jb     423dc <vmiter::real_find(unsigned long, bool)+0xb6>
        lbits_ = noncanonical_lbits;
   423c4:	c7 47 10 2f 00 00 00 	movl   $0x2f,0x10(%rdi)
        perm_ = 0;
   423cb:	c7 47 14 00 00 00 00 	movl   $0x0,0x14(%rdi)
        pep_ = const_cast<x86_64_pageentry_t*>(&zero_pe);
   423d2:	ba d8 69 04 00       	mov    $0x469d8,%edx
   423d7:	e9 71 ff ff ff       	jmp    4234d <vmiter::real_find(unsigned long, bool)+0x27>
        lbits_ = initial_lbits;
   423dc:	c7 47 10 27 00 00 00 	movl   $0x27,0x10(%rdi)
        perm_ = initial_perm;
   423e3:	c7 47 14 ff 0f 00 00 	movl   $0xfff,0x14(%rdi)
        pep_ = &pt_->entry[(va >> lbits_) & 0x1FF];
   423ea:	48 89 c2             	mov    %rax,%rdx
   423ed:	48 c1 ea 24          	shr    $0x24,%rdx
   423f1:	81 e2 f8 0f 00 00    	and    $0xff8,%edx
   423f7:	48 03 17             	add    (%rdi),%rdx
   423fa:	e9 4e ff ff ff       	jmp    4234d <vmiter::real_find(unsigned long, bool)+0x27>
   423ff:	90                   	nop

0000000000042400 <vmiter::next()>:

void vmiter::next() {
   42400:	f3 0f 1e fa          	endbr64
   42404:	55                   	push   %rbp
   42405:	48 89 e5             	mov    %rsp,%rbp
    int lbits = PAGEOFFBITS;
    if (lbits_ > PAGEOFFBITS && !perm()) {
   42408:	8b 4f 10             	mov    0x10(%rdi),%ecx
   4240b:	83 f9 0c             	cmp    $0xc,%ecx
   4240e:	7e 40                	jle    42450 <vmiter::next()+0x50>
    uint64_t ph = *pep_ & perm_;
   42410:	48 8b 57 08          	mov    0x8(%rdi),%rdx
   42414:	48 63 47 14          	movslq 0x14(%rdi),%rax
   42418:	48 23 02             	and    (%rdx),%rax
    return ph & -(ph & PTE_P);
   4241b:	48 89 c2             	mov    %rax,%rdx
   4241e:	83 e2 01             	and    $0x1,%edx
   42421:	48 f7 da             	neg    %rdx
    int lbits = PAGEOFFBITS;
   42424:	48 85 c2             	test   %rax,%rdx
   42427:	b8 0c 00 00 00       	mov    $0xc,%eax
   4242c:	0f 45 c8             	cmovne %eax,%ecx
    return ~(~uintptr_t(0) << lbits);
   4242f:	48 c7 c6 ff ff ff ff 	mov    $0xffffffffffffffff,%rsi
   42436:	48 d3 e6             	shl    %cl,%rsi
   42439:	48 f7 d6             	not    %rsi
        lbits = lbits_;
    }
    real_find((va_ | lbits_mask(lbits)) + 1, true);
   4243c:	48 0b 77 18          	or     0x18(%rdi),%rsi
   42440:	48 83 c6 01          	add    $0x1,%rsi
   42444:	ba 01 00 00 00       	mov    $0x1,%edx
   42449:	e8 d8 fe ff ff       	call   42326 <vmiter::real_find(unsigned long, bool)>
}
   4244e:	5d                   	pop    %rbp
   4244f:	c3                   	ret
    int lbits = PAGEOFFBITS;
   42450:	b9 0c 00 00 00       	mov    $0xc,%ecx
   42455:	eb d8                	jmp    4242f <vmiter::next()+0x2f>
   42457:	90                   	nop

0000000000042458 <vmiter::try_map(unsigned long, int)>:

int vmiter::try_map(uintptr_t pa, int perm) {
   42458:	f3 0f 1e fa          	endbr64
   4245c:	55                   	push   %rbp
   4245d:	48 89 e5             	mov    %rsp,%rbp
   42460:	41 57                	push   %r15
   42462:	41 56                	push   %r14
   42464:	41 55                	push   %r13
   42466:	41 54                	push   %r12
   42468:	53                   	push   %rbx
   42469:	48 83 ec 08          	sub    $0x8,%rsp
   4246d:	49 89 fc             	mov    %rdi,%r12
   42470:	49 89 f6             	mov    %rsi,%r14
   42473:	41 89 d7             	mov    %edx,%r15d
    if (pa == (uintptr_t) -1 && perm == 0) {
   42476:	48 83 fe ff          	cmp    $0xffffffffffffffff,%rsi
   4247a:	75 2a                	jne    424a6 <vmiter::try_map(unsigned long, int)+0x4e>
   4247c:	85 d2                	test   %edx,%edx
   4247e:	75 26                	jne    424a6 <vmiter::try_map(unsigned long, int)+0x4e>
        pa = 0;
    }
    // virtual address is page-aligned
    assert((va_ % PAGESIZE) == 0, "vmiter::try_map va not aligned");
   42480:	4c 8b 77 18          	mov    0x18(%rdi),%r14
   42484:	41 81 e6 ff 0f 00 00 	and    $0xfff,%r14d
   4248b:	74 4a                	je     424d7 <vmiter::try_map(unsigned long, int)+0x7f>
   4248d:	b9 40 65 04 00       	mov    $0x46540,%ecx
   42492:	ba c3 5f 04 00       	mov    $0x45fc3,%edx
   42497:	be 39 00 00 00       	mov    $0x39,%esi
   4249c:	bf d9 5f 04 00       	mov    $0x45fd9,%edi
   424a1:	e8 17 12 00 00       	call   436bd <assert_fail(char const*, int, char const*, char const*)>
   424a6:	66 41 f7 44 24 18 ff 	testw  $0xfff,0x18(%r12)
   424ad:	0f 
   424ae:	75 dd                	jne    4248d <vmiter::try_map(unsigned long, int)+0x35>
    if (perm & PTE_P) {
   424b0:	41 f6 c7 01          	test   $0x1,%r15b
   424b4:	0f 84 e2 00 00 00    	je     4259c <vmiter::try_map(unsigned long, int)+0x144>
        // if mapping present, physical address is page-aligned
        assert(pa != (uintptr_t) -1, "vmiter::try_map mapping nonexistent pa");
   424ba:	49 83 fe ff          	cmp    $0xffffffffffffffff,%r14
   424be:	0f 84 a6 00 00 00    	je     4256a <vmiter::try_map(unsigned long, int)+0x112>
        assert((pa & PTE_PAMASK) == pa, "vmiter::try_map pa not aligned");
   424c4:	48 b8 ff 0f 00 00 00 	movabs $0xfff0000000000fff,%rax
   424cb:	00 f0 ff 
   424ce:	49 85 c6             	test   %rax,%r14
   424d1:	0f 85 ac 00 00 00    	jne    42583 <vmiter::try_map(unsigned long, int)+0x12b>
    } else {
        assert((pa & PTE_P) == 0, "vmiter::try_map invalid pa");
    }
    // new permissions (`perm`) cannot be less restrictive than permissions
    // imposed by higher-level page tables (`perm_`)
    assert(!(perm & ~perm_ & (PTE_P | PTE_W | PTE_U)));
   424d7:	45 8b 6c 24 14       	mov    0x14(%r12),%r13d
   424dc:	41 f7 d5             	not    %r13d
   424df:	45 21 fd             	and    %r15d,%r13d
   424e2:	41 83 e5 07          	and    $0x7,%r13d
   424e6:	0f 85 d3 00 00 00    	jne    425bf <vmiter::try_map(unsigned long, int)+0x167>

    while (lbits_ > PAGEOFFBITS && perm) {
   424ec:	41 8b 44 24 10       	mov    0x10(%r12),%eax
   424f1:	45 85 ff             	test   %r15d,%r15d
   424f4:	74 59                	je     4254f <vmiter::try_map(unsigned long, int)+0xf7>
   424f6:	83 f8 0c             	cmp    $0xc,%eax
   424f9:	7e 54                	jle    4254f <vmiter::try_map(unsigned long, int)+0xf7>
        assert(!(*pep_ & PTE_P));
   424fb:	49 8b 44 24 08       	mov    0x8(%r12),%rax
   42500:	f6 00 01             	testb  $0x1,(%rax)
   42503:	0f 85 cf 00 00 00    	jne    425d8 <vmiter::try_map(unsigned long, int)+0x180>
        x86_64_pagetable* pt = static_cast<x86_64_pagetable*>(kalloc(PAGESIZE));
   42509:	bf 00 10 00 00       	mov    $0x1000,%edi
   4250e:	e8 53 e6 ff ff       	call   40b66 <kalloc(unsigned long)>
   42513:	48 89 c3             	mov    %rax,%rbx
        if (!pt) {
   42516:	48 85 c0             	test   %rax,%rax
   42519:	0f 84 e5 00 00 00    	je     42604 <vmiter::try_map(unsigned long, int)+0x1ac>
            return -1;
        }
        memset(pt, 0, PAGESIZE);
   4251f:	ba 00 10 00 00       	mov    $0x1000,%edx
   42524:	be 00 00 00 00       	mov    $0x0,%esi
   42529:	48 89 c7             	mov    %rax,%rdi
   4252c:	e8 81 2c 00 00       	call   451b2 <memset>
        std::atomic_thread_fence(std::memory_order_release);
        *pep_ = reinterpret_cast<uintptr_t>(pt) | PTE_P | PTE_W | PTE_U;
   42531:	49 8b 44 24 08       	mov    0x8(%r12),%rax
   42536:	48 83 cb 07          	or     $0x7,%rbx
   4253a:	48 89 18             	mov    %rbx,(%rax)
        down();
   4253d:	4c 89 e7             	mov    %r12,%rdi
   42540:	e8 4d fd ff ff       	call   42292 <vmiter::down()>
    while (lbits_ > PAGEOFFBITS && perm) {
   42545:	41 8b 44 24 10       	mov    0x10(%r12),%eax
   4254a:	83 f8 0c             	cmp    $0xc,%eax
   4254d:	7f ac                	jg     424fb <vmiter::try_map(unsigned long, int)+0xa3>
    }

    if (lbits_ == PAGEOFFBITS) {
   4254f:	83 f8 0c             	cmp    $0xc,%eax
   42552:	0f 84 99 00 00 00    	je     425f1 <vmiter::try_map(unsigned long, int)+0x199>
        std::atomic_thread_fence(std::memory_order_release);
        *pep_ = pa | perm;
    }
    return 0;
}
   42558:	44 89 e8             	mov    %r13d,%eax
   4255b:	48 83 c4 08          	add    $0x8,%rsp
   4255f:	5b                   	pop    %rbx
   42560:	41 5c                	pop    %r12
   42562:	41 5d                	pop    %r13
   42564:	41 5e                	pop    %r14
   42566:	41 5f                	pop    %r15
   42568:	5d                   	pop    %rbp
   42569:	c3                   	ret
        assert(pa != (uintptr_t) -1, "vmiter::try_map mapping nonexistent pa");
   4256a:	b9 60 65 04 00       	mov    $0x46560,%ecx
   4256f:	ba e5 5f 04 00       	mov    $0x45fe5,%edx
   42574:	be 3c 00 00 00       	mov    $0x3c,%esi
   42579:	bf d9 5f 04 00       	mov    $0x45fd9,%edi
   4257e:	e8 3a 11 00 00       	call   436bd <assert_fail(char const*, int, char const*, char const*)>
        assert((pa & PTE_PAMASK) == pa, "vmiter::try_map pa not aligned");
   42583:	b9 88 65 04 00       	mov    $0x46588,%ecx
   42588:	ba fa 5f 04 00       	mov    $0x45ffa,%edx
   4258d:	be 3d 00 00 00       	mov    $0x3d,%esi
   42592:	bf d9 5f 04 00       	mov    $0x45fd9,%edi
   42597:	e8 21 11 00 00       	call   436bd <assert_fail(char const*, int, char const*, char const*)>
        assert((pa & PTE_P) == 0, "vmiter::try_map invalid pa");
   4259c:	41 f6 c6 01          	test   $0x1,%r14b
   425a0:	0f 84 31 ff ff ff    	je     424d7 <vmiter::try_map(unsigned long, int)+0x7f>
   425a6:	b9 12 60 04 00       	mov    $0x46012,%ecx
   425ab:	ba 2d 60 04 00       	mov    $0x4602d,%edx
   425b0:	be 3f 00 00 00       	mov    $0x3f,%esi
   425b5:	bf d9 5f 04 00       	mov    $0x45fd9,%edi
   425ba:	e8 fe 10 00 00       	call   436bd <assert_fail(char const*, int, char const*, char const*)>
    assert(!(perm & ~perm_ & (PTE_P | PTE_W | PTE_U)));
   425bf:	b9 00 00 00 00       	mov    $0x0,%ecx
   425c4:	ba a8 65 04 00       	mov    $0x465a8,%edx
   425c9:	be 43 00 00 00       	mov    $0x43,%esi
   425ce:	bf d9 5f 04 00       	mov    $0x45fd9,%edi
   425d3:	e8 e5 10 00 00       	call   436bd <assert_fail(char const*, int, char const*, char const*)>
        assert(!(*pep_ & PTE_P));
   425d8:	b9 00 00 00 00       	mov    $0x0,%ecx
   425dd:	ba 3f 60 04 00       	mov    $0x4603f,%edx
   425e2:	be 46 00 00 00       	mov    $0x46,%esi
   425e7:	bf d9 5f 04 00       	mov    $0x45fd9,%edi
   425ec:	e8 cc 10 00 00       	call   436bd <assert_fail(char const*, int, char const*, char const*)>
        *pep_ = pa | perm;
   425f1:	49 8b 44 24 08       	mov    0x8(%r12),%rax
   425f6:	4d 63 ff             	movslq %r15d,%r15
   425f9:	4d 09 f7             	or     %r14,%r15
   425fc:	4c 89 38             	mov    %r15,(%rax)
   425ff:	e9 54 ff ff ff       	jmp    42558 <vmiter::try_map(unsigned long, int)+0x100>
            return -1;
   42604:	41 bd ff ff ff ff    	mov    $0xffffffff,%r13d
   4260a:	e9 49 ff ff ff       	jmp    42558 <vmiter::try_map(unsigned long, int)+0x100>
   4260f:	90                   	nop

0000000000042610 <vmiter::range_perm(unsigned long) const>:


uint64_t vmiter::range_perm(size_t sz) const {
   42610:	f3 0f 1e fa          	endbr64
   42614:	55                   	push   %rbp
   42615:	48 89 e5             	mov    %rsp,%rbp
   42618:	41 57                	push   %r15
   4261a:	41 56                	push   %r14
   4261c:	41 55                	push   %r13
   4261e:	41 54                	push   %r12
   42620:	53                   	push   %rbx
   42621:	48 83 ec 18          	sub    $0x18,%rsp
   42625:	48 89 fb             	mov    %rdi,%rbx
   42628:	49 89 f4             	mov    %rsi,%r12
    uint64_t p = sz > 0 ? perm() : uint64_t(-1);
   4262b:	48 85 f6             	test   %rsi,%rsi
   4262e:	0f 84 ce 00 00 00    	je     42702 <vmiter::range_perm(unsigned long) const+0xf2>
    uint64_t ph = *pep_ & perm_;
   42634:	48 8b 57 08          	mov    0x8(%rdi),%rdx
   42638:	48 63 47 14          	movslq 0x14(%rdi),%rax
   4263c:	48 23 02             	and    (%rdx),%rax
    return ph & -(ph & PTE_P);
   4263f:	49 89 c5             	mov    %rax,%r13
   42642:	41 83 e5 01          	and    $0x1,%r13d
   42646:	49 f7 dd             	neg    %r13
    uintptr_t sva = va_;
   42649:	48 8b 7f 18          	mov    0x18(%rdi),%rdi
   4264d:	48 89 7d c8          	mov    %rdi,-0x38(%rbp)
    while (p && sz > last_va() - va()) {
   42651:	49 21 c5             	and    %rax,%r13
    uint64_t p = sz > 0 ? perm() : uint64_t(-1);
   42654:	4d 89 ee             	mov    %r13,%r14
    while (p && sz > last_va() - va()) {
   42657:	0f 85 b4 00 00 00    	jne    42711 <vmiter::range_perm(unsigned long) const+0x101>
   4265d:	e9 84 00 00 00       	jmp    426e6 <vmiter::range_perm(unsigned long) const+0xd6>
    uint64_t ph = *pep_ & perm_;
   42662:	48 8b 43 08          	mov    0x8(%rbx),%rax
   42666:	48 63 53 14          	movslq 0x14(%rbx),%rdx
   4266a:	48 23 10             	and    (%rax),%rdx
    return ph & -(ph & PTE_P);
   4266d:	48 89 d0             	mov    %rdx,%rax
   42670:	83 e0 01             	and    $0x1,%eax
   42673:	48 f7 d8             	neg    %rax
   42676:	48 21 d0             	and    %rdx,%rax
   42679:	49 21 c5             	and    %rax,%r13
   4267c:	74 7a                	je     426f8 <vmiter::range_perm(unsigned long) const+0xe8>
    if (lbits_ == noncanonical_lbits) {
   4267e:	8b 4b 10             	mov    0x10(%rbx),%ecx
        return VA_HIGHMIN;
   42681:	4c 89 fe             	mov    %r15,%rsi
    if (lbits_ == noncanonical_lbits) {
   42684:	83 f9 2f             	cmp    $0x2f,%ecx
   42687:	74 15                	je     4269e <vmiter::range_perm(unsigned long) const+0x8e>
    return ~(~uintptr_t(0) << lbits);
   42689:	48 c7 c6 ff ff ff ff 	mov    $0xffffffffffffffff,%rsi
   42690:	48 d3 e6             	shl    %cl,%rsi
   42693:	48 f7 d6             	not    %rsi
        return (va_ | lbits_mask(lbits_)) + 1;
   42696:	48 0b 73 18          	or     0x18(%rbx),%rsi
   4269a:	48 83 c6 01          	add    $0x1,%rsi
    return va_;
   4269e:	48 8b 43 18          	mov    0x18(%rbx),%rax
   426a2:	48 89 f2             	mov    %rsi,%rdx
   426a5:	48 29 c2             	sub    %rax,%rdx
   426a8:	4c 39 e2             	cmp    %r12,%rdx
   426ab:	73 50                	jae    426fd <vmiter::range_perm(unsigned long) const+0xed>
        sz -= last_va() - va();
   426ad:	4c 01 e0             	add    %r12,%rax
   426b0:	48 29 f0             	sub    %rsi,%rax
   426b3:	49 89 c4             	mov    %rax,%r12
    real_find(last_va(), true);
   426b6:	ba 01 00 00 00       	mov    $0x1,%edx
   426bb:	48 89 df             	mov    %rbx,%rdi
   426be:	e8 63 fc ff ff       	call   42326 <vmiter::real_find(unsigned long, bool)>
    return va_;
   426c3:	4c 8b 73 18          	mov    0x18(%rbx),%r14
        const_cast<vmiter*>(this)->next_range();
        p &= va() ? perm() : 0;
   426c7:	4d 85 f6             	test   %r14,%r14
   426ca:	75 96                	jne    42662 <vmiter::range_perm(unsigned long) const+0x52>
    if (va != va_) {
   426cc:	48 8b 45 c8          	mov    -0x38(%rbp),%rax
   426d0:	48 3b 43 18          	cmp    0x18(%rbx),%rax
   426d4:	74 10                	je     426e6 <vmiter::range_perm(unsigned long) const+0xd6>
        real_find(va, false);
   426d6:	ba 00 00 00 00       	mov    $0x0,%edx
   426db:	48 89 c6             	mov    %rax,%rsi
   426de:	48 89 df             	mov    %rbx,%rdi
   426e1:	e8 40 fc ff ff       	call   42326 <vmiter::real_find(unsigned long, bool)>
    }
    const_cast<vmiter*>(this)->find(sva);
    return p;
}
   426e6:	4c 89 f0             	mov    %r14,%rax
   426e9:	48 83 c4 18          	add    $0x18,%rsp
   426ed:	5b                   	pop    %rbx
   426ee:	41 5c                	pop    %r12
   426f0:	41 5d                	pop    %r13
   426f2:	41 5e                	pop    %r14
   426f4:	41 5f                	pop    %r15
   426f6:	5d                   	pop    %rbp
   426f7:	c3                   	ret
   426f8:	4d 89 ee             	mov    %r13,%r14
   426fb:	eb cf                	jmp    426cc <vmiter::range_perm(unsigned long) const+0xbc>
   426fd:	4d 89 ee             	mov    %r13,%r14
   42700:	eb ca                	jmp    426cc <vmiter::range_perm(unsigned long) const+0xbc>
    uintptr_t sva = va_;
   42702:	48 8b 47 18          	mov    0x18(%rdi),%rax
   42706:	48 89 45 c8          	mov    %rax,-0x38(%rbp)
    uint64_t p = sz > 0 ? perm() : uint64_t(-1);
   4270a:	49 c7 c5 ff ff ff ff 	mov    $0xffffffffffffffff,%r13
        return VA_HIGHMIN;
   42711:	49 bf 00 00 00 00 00 	movabs $0xffff800000000000,%r15
   42718:	80 ff ff 
   4271b:	e9 5e ff ff ff       	jmp    4267e <vmiter::range_perm(unsigned long) const+0x6e>

0000000000042720 <ptiter::down(bool)>:
ptiter::ptiter(x86_64_pagetable* pt)
    : pt_(pt), pep_(&pt_->entry[0]), lbits_(vmiter::initial_lbits), va_(0) {
    down(false);
}

void ptiter::down(bool skip) {
   42720:	f3 0f 1e fa          	endbr64
    int stop_lbits = PAGEOFFBITS + PAGEINDEXBITS;
    while (lbits_ < vmiter::done_lbits) {
   42724:	44 8b 47 10          	mov    0x10(%rdi),%r8d
   42728:	41 83 f8 3f          	cmp    $0x3f,%r8d
   4272c:	0f 8f 17 01 00 00    	jg     42849 <ptiter::down(bool)+0x129>
void ptiter::down(bool skip) {
   42732:	55                   	push   %rbp
   42733:	48 89 e5             	mov    %rsp,%rbp
   42736:	41 57                	push   %r15
   42738:	41 56                	push   %r14
   4273a:	41 55                	push   %r13
   4273c:	41 54                	push   %r12
   4273e:	53                   	push   %rbx
    int stop_lbits = PAGEOFFBITS + PAGEINDEXBITS;
   4273f:	41 bb 15 00 00 00    	mov    $0x15,%r11d
    return ~(~uintptr_t(0) << lbits);
   42745:	49 c7 c1 ff ff ff ff 	mov    $0xffffffffffffffff,%r9
   4274c:	49 bd 01 00 00 00 00 	movabs $0xffff800000000001,%r13
   42753:	80 ff ff 
                stop_lbits = lbits_ + PAGEINDEXBITS;
                lbits_ = vmiter::initial_lbits;
                pep_ = &pt_->entry[(va_ >> lbits_) & 0x1FF];
            } else {
                ++pep_;
                va_ = va_is_canonical(va) ? va : VA_HIGHMIN;
   42756:	49 bc ff ff ff ff ff 	movabs $0xfffeffffffffffff,%r12
   4275d:	ff fe ff 
   42760:	48 bb 00 00 00 00 00 	movabs $0xffff800000000000,%rbx
   42767:	80 ff ff 
                uintptr_t pa = *pep_ & PTE_PAMASK;
   4276a:	49 be 00 f0 ff ff ff 	movabs $0xffffffffff000,%r14
   42771:	ff 0f 00 
   42774:	eb 51                	jmp    427c7 <ptiter::down(bool)+0xa7>
            if (lbits_ == stop_lbits) {
   42776:	45 39 d8             	cmp    %r11d,%r8d
   42779:	0f 84 bf 00 00 00    	je     4283e <ptiter::down(bool)+0x11e>
                lbits_ -= PAGEINDEXBITS;
   4277f:	41 8d 48 f7          	lea    -0x9(%r8),%ecx
   42783:	89 4f 10             	mov    %ecx,0x10(%rdi)
                uintptr_t pa = *pep_ & PTE_PAMASK;
   42786:	4c 89 f0             	mov    %r14,%rax
   42789:	48 23 02             	and    (%rdx),%rax
   4278c:	48 89 c2             	mov    %rax,%rdx
                pep_ = &pt->entry[(va_ >> lbits_) & 0x1FF];
   4278f:	48 8b 47 18          	mov    0x18(%rdi),%rax
   42793:	48 d3 e8             	shr    %cl,%rax
   42796:	25 ff 01 00 00       	and    $0x1ff,%eax
   4279b:	48 8d 04 c2          	lea    (%rdx,%rax,8),%rax
        } else {
   4279f:	eb 19                	jmp    427ba <ptiter::down(bool)+0x9a>
                lbits_ = vmiter::initial_lbits;
   427a1:	c7 47 10 27 00 00 00 	movl   $0x27,0x10(%rdi)
                pep_ = &pt_->entry[(va_ >> lbits_) & 0x1FF];
   427a8:	48 89 f0             	mov    %rsi,%rax
   427ab:	48 c1 e8 24          	shr    $0x24,%rax
   427af:	25 f8 0f 00 00       	and    $0xff8,%eax
   427b4:	48 03 07             	add    (%rdi),%rax
                stop_lbits = lbits_ + PAGEINDEXBITS;
   427b7:	41 89 cb             	mov    %ecx,%r11d
                pep_ = &pt->entry[(va_ >> lbits_) & 0x1FF];
   427ba:	48 89 47 08          	mov    %rax,0x8(%rdi)
    while (lbits_ < vmiter::done_lbits) {
   427be:	44 8b 47 10          	mov    0x10(%rdi),%r8d
void ptiter::down(bool skip) {
   427c2:	be 00 00 00 00       	mov    $0x0,%esi
        if (!skip && (*pep_ & (PTE_P | PTE_PS)) == PTE_P) {
   427c7:	40 84 f6             	test   %sil,%sil
   427ca:	75 12                	jne    427de <ptiter::down(bool)+0xbe>
   427cc:	48 8b 57 08          	mov    0x8(%rdi),%rdx
   427d0:	48 8b 02             	mov    (%rdx),%rax
   427d3:	25 81 00 00 00       	and    $0x81,%eax
   427d8:	48 83 f8 01          	cmp    $0x1,%rax
   427dc:	74 98                	je     42776 <ptiter::down(bool)+0x56>
            uintptr_t va = (va_ | vmiter::lbits_mask(lbits_)) + 1;
   427de:	48 8b 77 18          	mov    0x18(%rdi),%rsi
   427e2:	4c 89 ca             	mov    %r9,%rdx
   427e5:	44 89 c1             	mov    %r8d,%ecx
   427e8:	48 d3 e2             	shl    %cl,%rdx
   427eb:	48 f7 d2             	not    %rdx
   427ee:	48 89 d0             	mov    %rdx,%rax
   427f1:	48 09 f0             	or     %rsi,%rax
   427f4:	48 8d 50 01          	lea    0x1(%rax),%rdx
            if ((va ^ va_) & ~vmiter::lbits_mask(lbits_ + PAGEINDEXBITS)) {
   427f8:	41 8d 48 09          	lea    0x9(%r8),%ecx
   427fc:	49 89 f2             	mov    %rsi,%r10
   427ff:	49 31 d2             	xor    %rdx,%r10
   42802:	4d 89 cf             	mov    %r9,%r15
   42805:	49 d3 e7             	shl    %cl,%r15
   42808:	4d 85 fa             	test   %r15,%r10
   4280b:	74 14                	je     42821 <ptiter::down(bool)+0x101>
                if (va == 0 && lbits_ == vmiter::initial_lbits) {
   4280d:	41 83 f8 27          	cmp    $0x27,%r8d
   42811:	75 8e                	jne    427a1 <ptiter::down(bool)+0x81>
   42813:	48 85 d2             	test   %rdx,%rdx
   42816:	75 89                	jne    427a1 <ptiter::down(bool)+0x81>
                    lbits_ = vmiter::done_lbits;
   42818:	c7 47 10 40 00 00 00 	movl   $0x40,0x10(%rdi)
                    break;
   4281f:	eb 1d                	jmp    4283e <ptiter::down(bool)+0x11e>
                ++pep_;
   42821:	48 83 47 08 08       	addq   $0x8,0x8(%rdi)
   42826:	4c 01 e8             	add    %r13,%rax
                va_ = va_is_canonical(va) ? va : VA_HIGHMIN;
   42829:	49 39 c4             	cmp    %rax,%r12
   4282c:	48 0f 43 d3          	cmovae %rbx,%rdx
   42830:	48 89 57 18          	mov    %rdx,0x18(%rdi)
    while (lbits_ < vmiter::done_lbits) {
   42834:	44 8b 47 10          	mov    0x10(%rdi),%r8d
   42838:	41 83 f8 3f          	cmp    $0x3f,%r8d
   4283c:	7e 84                	jle    427c2 <ptiter::down(bool)+0xa2>
            }
            skip = false;
        }
    }
}
   4283e:	5b                   	pop    %rbx
   4283f:	41 5c                	pop    %r12
   42841:	41 5d                	pop    %r13
   42843:	41 5e                	pop    %r14
   42845:	41 5f                	pop    %r15
   42847:	5d                   	pop    %rbp
   42848:	c3                   	ret
   42849:	c3                   	ret

000000000004284a <ptiter::ptiter(x86_64_pagetable*)>:
ptiter::ptiter(x86_64_pagetable* pt)
   4284a:	f3 0f 1e fa          	endbr64
   4284e:	55                   	push   %rbp
   4284f:	48 89 e5             	mov    %rsp,%rbp
    : pt_(pt), pep_(&pt_->entry[0]), lbits_(vmiter::initial_lbits), va_(0) {
   42852:	48 89 37             	mov    %rsi,(%rdi)
   42855:	48 89 77 08          	mov    %rsi,0x8(%rdi)
   42859:	c7 47 10 27 00 00 00 	movl   $0x27,0x10(%rdi)
   42860:	48 c7 47 18 00 00 00 	movq   $0x0,0x18(%rdi)
   42867:	00 
    down(false);
   42868:	be 00 00 00 00       	mov    $0x0,%esi
   4286d:	e8 ae fe ff ff       	call   42720 <ptiter::down(bool)>
}
   42872:	5d                   	pop    %rbp
   42873:	c3                   	ret

0000000000042874 <parallel_port_putc(unsigned char)>:
    (void) inb(0x84);
    (void) inb(0x84);
    (void) inb(0x84);
}

static void parallel_port_putc(unsigned char c) {
   42874:	41 89 f8             	mov    %edi,%r8d
    static int initialized;
    if (!initialized) {
   42877:	83 3d 86 87 02 00 00 	cmpl   $0x0,0x28786(%rip)        # 6b004 <parallel_port_putc(unsigned char)::initialized>
   4287e:	75 15                	jne    42895 <parallel_port_putc(unsigned char)+0x21>
    asm volatile("outb %0, %w1" : : "a" (data), "d" (port));
   42880:	b8 00 00 00 00       	mov    $0x0,%eax
   42885:	ba 7a 03 00 00       	mov    $0x37a,%edx
   4288a:	ee                   	out    %al,(%dx)
        outb(IO_PARALLEL1_CONTROL, 0);
        initialized = 1;
   4288b:	c7 05 6f 87 02 00 01 	movl   $0x1,0x2876f(%rip)        # 6b004 <parallel_port_putc(unsigned char)::initialized>
   42892:	00 00 00 
    asm volatile("inb %w1, %0" : "=a" (data) : "d" (port));
   42895:	ba 79 03 00 00       	mov    $0x379,%edx
   4289a:	ec                   	in     (%dx),%al
    }

    for (int i = 0;
         i < 12800 && (inb(IO_PARALLEL1_STATUS) & IO_PARALLEL_STATUS_BUSY) == 0;
   4289b:	be 00 32 00 00       	mov    $0x3200,%esi
   428a0:	b9 84 00 00 00       	mov    $0x84,%ecx
   428a5:	bf 79 03 00 00       	mov    $0x379,%edi
   428aa:	84 c0                	test   %al,%al
   428ac:	78 12                	js     428c0 <parallel_port_putc(unsigned char)+0x4c>
   428ae:	89 ca                	mov    %ecx,%edx
   428b0:	ec                   	in     (%dx),%al
   428b1:	ec                   	in     (%dx),%al
   428b2:	ec                   	in     (%dx),%al
   428b3:	ec                   	in     (%dx),%al
   428b4:	83 ee 01             	sub    $0x1,%esi
   428b7:	74 07                	je     428c0 <parallel_port_putc(unsigned char)+0x4c>
   428b9:	89 fa                	mov    %edi,%edx
   428bb:	ec                   	in     (%dx),%al
   428bc:	84 c0                	test   %al,%al
   428be:	79 ee                	jns    428ae <parallel_port_putc(unsigned char)+0x3a>
    asm volatile("outb %0, %w1" : : "a" (data), "d" (port));
   428c0:	ba 78 03 00 00       	mov    $0x378,%edx
   428c5:	44 89 c0             	mov    %r8d,%eax
   428c8:	ee                   	out    %al,(%dx)
   428c9:	ba 7a 03 00 00       	mov    $0x37a,%edx
   428ce:	b8 0d 00 00 00       	mov    $0xd,%eax
   428d3:	ee                   	out    %al,(%dx)
   428d4:	b8 0c 00 00 00       	mov    $0xc,%eax
   428d9:	ee                   	out    %al,(%dx)
    outb(IO_PARALLEL1_DATA, c);
    outb(IO_PARALLEL1_CONTROL, IO_PARALLEL_CONTROL_SELECT
         | IO_PARALLEL_CONTROL_INIT | IO_PARALLEL_CONTROL_STROBE);
    outb(IO_PARALLEL1_CONTROL, IO_PARALLEL_CONTROL_SELECT
         | IO_PARALLEL_CONTROL_INIT);
}
   428da:	c3                   	ret
   428db:	90                   	nop

00000000000428dc <(anonymous namespace)::log_printer::putc(unsigned char)>:

namespace {
struct log_printer : public printer {
    void putc(unsigned char c) override {
   428dc:	f3 0f 1e fa          	endbr64
   428e0:	55                   	push   %rbp
   428e1:	48 89 e5             	mov    %rsp,%rbp
        parallel_port_putc(c);
   428e4:	40 0f b6 fe          	movzbl %sil,%edi
   428e8:	e8 87 ff ff ff       	call   42874 <parallel_port_putc(unsigned char)>
    }
   428ed:	5d                   	pop    %rbp
   428ee:	c3                   	ret

00000000000428ef <stash_kernel_data(bool)>:

// stash_kernel_data
//    Soft reboot requires that we restore kernel data memory to
//    its initial state, so we store its initial state in unused
//    physical memory.
static void stash_kernel_data(bool reboot) {
   428ef:	55                   	push   %rbp
   428f0:	48 89 e5             	mov    %rsp,%rbp
   428f3:	89 f8                	mov    %edi,%eax
    // stash initial value of data segment for soft-reboot support
    extern uint8_t _data_start[], _edata[], _kernel_end[];
    uintptr_t data_size = (uintptr_t) _edata - (uintptr_t) _data_start;
   428f5:	ba 10 36 06 00       	mov    $0x63610,%edx
   428fa:	48 81 ea 00 80 04 00 	sub    $0x48000,%rdx
    uint8_t* data_stash = (uint8_t*) (SYMTAB_ADDR - data_size);
   42901:	bf 00 80 04 01       	mov    $0x1048000,%edi
   42906:	48 81 ef 10 36 06 00 	sub    $0x63610,%rdi
    if (reboot) {
   4290d:	84 c0                	test   %al,%al
   4290f:	74 2a                	je     4293b <stash_kernel_data(bool)+0x4c>
        memcpy(_data_start, data_stash, data_size);
   42911:	48 89 fe             	mov    %rdi,%rsi
   42914:	bf 00 80 04 00       	mov    $0x48000,%edi
   42919:	e8 70 28 00 00       	call   4518e <memcpy>
        memset(_edata, 0, _kernel_end - _edata);
   4291e:	ba a0 b1 06 00       	mov    $0x6b1a0,%edx
   42923:	48 81 ea 10 36 06 00 	sub    $0x63610,%rdx
   4292a:	be 00 00 00 00       	mov    $0x0,%esi
   4292f:	bf 10 36 06 00       	mov    $0x63610,%edi
   42934:	e8 79 28 00 00       	call   451b2 <memset>
    } else {
        memcpy(data_stash, _data_start, data_size);
    }
}
   42939:	5d                   	pop    %rbp
   4293a:	c3                   	ret
        memcpy(data_stash, _data_start, data_size);
   4293b:	be 00 80 04 00       	mov    $0x48000,%esi
   42940:	e8 49 28 00 00       	call   4518e <memcpy>
}
   42945:	eb f2                	jmp    42939 <stash_kernel_data(bool)+0x4a>
   42947:	90                   	nop

0000000000042948 <(anonymous namespace)::backtracer::check()>:
void backtracer::check() {
   42948:	55                   	push   %rbp
   42949:	48 89 e5             	mov    %rsp,%rbp
   4294c:	53                   	push   %rbx
   4294d:	48 83 ec 28          	sub    $0x28,%rsp
   42951:	48 89 fb             	mov    %rdi,%rbx
    if (pt_
   42954:	48 8b 47 20          	mov    0x20(%rdi),%rax
        && vmiter(pt_, rbp_).range_perm(16, PTE_P)) {
   42958:	48 85 c0             	test   %rax,%rax
   4295b:	74 21                	je     4297e <(anonymous namespace)::backtracer::check()+0x36>
        && rbp_ >= rsp_
   4295d:	48 8b 37             	mov    (%rdi),%rsi
   42960:	48 3b 77 08          	cmp    0x8(%rdi),%rsi
   42964:	72 18                	jb     4297e <(anonymous namespace)::backtracer::check()+0x36>
        && stack_top_ >= rbp_
   42966:	48 8b 57 10          	mov    0x10(%rdi),%rdx
   4296a:	48 39 f2             	cmp    %rsi,%rdx
   4296d:	72 0f                	jb     4297e <(anonymous namespace)::backtracer::check()+0x36>
        && stack_top_ - rbp_ >= 16
   4296f:	48 29 f2             	sub    %rsi,%rdx
   42972:	48 83 fa 0f          	cmp    $0xf,%rdx
   42976:	76 06                	jbe    4297e <(anonymous namespace)::backtracer::check()+0x36>
        && (rbp_ & 7) == 0
   42978:	40 f6 c6 07          	test   $0x7,%sil
   4297c:	74 15                	je     42993 <(anonymous namespace)::backtracer::check()+0x4b>
    rbp_ = rsp_ = 0;
   4297e:	48 c7 43 08 00 00 00 	movq   $0x0,0x8(%rbx)
   42985:	00 
   42986:	48 c7 03 00 00 00 00 	movq   $0x0,(%rbx)
}
   4298d:	48 8b 5d f8          	mov    -0x8(%rbp),%rbx
   42991:	c9                   	leave
   42992:	c3                   	ret
    : pt_(pt), pep_(&pt_->entry[0]), lbits_(initial_lbits),
   42993:	48 89 45 d0          	mov    %rax,-0x30(%rbp)
   42997:	48 89 45 d8          	mov    %rax,-0x28(%rbp)
   4299b:	c7 45 e0 27 00 00 00 	movl   $0x27,-0x20(%rbp)
      perm_(initial_perm), va_(0) {
   429a2:	c7 45 e4 ff 0f 00 00 	movl   $0xfff,-0x1c(%rbp)
   429a9:	48 c7 45 e8 00 00 00 	movq   $0x0,-0x18(%rbp)
   429b0:	00 
    real_find(va, false);
   429b1:	ba 00 00 00 00       	mov    $0x0,%edx
   429b6:	48 8d 7d d0          	lea    -0x30(%rbp),%rdi
   429ba:	e8 67 f9 ff ff       	call   42326 <vmiter::real_find(unsigned long, bool)>
    return (range_perm(sz) & desired_perm) == desired_perm;
   429bf:	be 10 00 00 00       	mov    $0x10,%esi
   429c4:	48 8d 7d d0          	lea    -0x30(%rbp),%rdi
   429c8:	e8 43 fc ff ff       	call   42610 <vmiter::range_perm(unsigned long) const>
        && vmiter(pt_, rbp_).range_perm(16, PTE_P)) {
   429cd:	a8 01                	test   $0x1,%al
   429cf:	74 ad                	je     4297e <(anonymous namespace)::backtracer::check()+0x36>
   429d1:	eb ba                	jmp    4298d <(anonymous namespace)::backtracer::check()+0x45>

00000000000429d3 <init_timer(int)>:
void init_timer(int rate) {
   429d3:	f3 0f 1e fa          	endbr64
    if (rate > 0) {
   429d7:	85 ff                	test   %edi,%edi
   429d9:	7e 16                	jle    429f1 <init_timer(int)+0x1e>
        lapic.write(lapic.reg_timer_initial_count, 1000000000 / rate);
   429db:	b8 00 ca 9a 3b       	mov    $0x3b9aca00,%eax
   429e0:	ba 00 00 00 00       	mov    $0x0,%edx
   429e5:	f7 ff                	idiv   %edi
   429e7:	a3 80 03 e0 fe 00 00 	movabs %eax,0xfee00380
   429ee:	00 00 
}
   429f0:	c3                   	ret
    reg_[reg].v = v;
   429f1:	b8 80 03 e0 fe       	mov    $0xfee00380,%eax
   429f6:	c7 00 00 00 00 00    	movl   $0x0,(%rax)
}
   429fc:	c3                   	ret

00000000000429fd <kalloc_pagetable()>:
x86_64_pagetable* kalloc_pagetable() {
   429fd:	f3 0f 1e fa          	endbr64
   42a01:	55                   	push   %rbp
   42a02:	48 89 e5             	mov    %rsp,%rbp
   42a05:	53                   	push   %rbx
   42a06:	48 83 ec 08          	sub    $0x8,%rsp
    x86_64_pagetable* pt = reinterpret_cast<x86_64_pagetable*>(kalloc(PAGESIZE));
   42a0a:	bf 00 10 00 00       	mov    $0x1000,%edi
   42a0f:	e8 52 e1 ff ff       	call   40b66 <kalloc(unsigned long)>
   42a14:	48 89 c3             	mov    %rax,%rbx
    if (pt) {
   42a17:	48 85 c0             	test   %rax,%rax
   42a1a:	74 12                	je     42a2e <kalloc_pagetable()+0x31>
        memset(&pt->entry[0], 0, sizeof(x86_64_pagetable));
   42a1c:	ba 00 10 00 00       	mov    $0x1000,%edx
   42a21:	be 00 00 00 00       	mov    $0x0,%esi
   42a26:	48 89 c7             	mov    %rax,%rdi
   42a29:	e8 84 27 00 00       	call   451b2 <memset>
}
   42a2e:	48 89 d8             	mov    %rbx,%rax
   42a31:	48 8b 5d f8          	mov    -0x8(%rbp),%rbx
   42a35:	c9                   	leave
   42a36:	c3                   	ret

0000000000042a37 <reserved_physical_address(unsigned long)>:
bool reserved_physical_address(uintptr_t pa) {
   42a37:	f3 0f 1e fa          	endbr64
    return pa < PAGESIZE || (pa >= IOPHYSMEM && pa < EXTPHYSMEM);
   42a3b:	48 8d 87 00 00 f6 ff 	lea    -0xa0000(%rdi),%rax
   42a42:	48 3d ff ff 05 00    	cmp    $0x5ffff,%rax
   42a48:	0f 96 c0             	setbe  %al
   42a4b:	48 81 ff ff 0f 00 00 	cmp    $0xfff,%rdi
   42a52:	0f 96 c2             	setbe  %dl
   42a55:	09 d0                	or     %edx,%eax
}
   42a57:	c3                   	ret

0000000000042a58 <allocatable_physical_address(unsigned long)>:
bool allocatable_physical_address(uintptr_t pa) {
   42a58:	f3 0f 1e fa          	endbr64
   42a5c:	55                   	push   %rbp
   42a5d:	48 89 e5             	mov    %rsp,%rbp
   42a60:	53                   	push   %rbx
   42a61:	48 83 ec 08          	sub    $0x8,%rsp
   42a65:	48 89 fb             	mov    %rdi,%rbx
    return !reserved_physical_address(pa)
   42a68:	e8 ca ff ff ff       	call   42a37 <reserved_physical_address(unsigned long)>
        && pa < MEMSIZE_PHYSICAL;
   42a6d:	84 c0                	test   %al,%al
   42a6f:	75 36                	jne    42aa7 <allocatable_physical_address(unsigned long)+0x4f>
        && (pa < KERNEL_START_ADDR
   42a71:	48 81 fb ff ff 03 00 	cmp    $0x3ffff,%rbx
   42a78:	76 21                	jbe    42a9b <allocatable_physical_address(unsigned long)+0x43>
//    Return the smallest multiple of `m` greater than or equal to `x`.
//    Equivalently, round `x` up to the nearest multiple of `m`.
template <typename T>
inline constexpr T round_up(T x, unsigned m) {
    static_assert(std::is_unsigned<T>::value, "T must be unsigned");
    return round_down(x + m - 1, m);
   42a7a:	ba 9f c1 06 00       	mov    $0x6c19f,%edx
            || pa >= round_up((uintptr_t) _kernel_end, PAGESIZE))
   42a7f:	48 81 e2 00 f0 ff ff 	and    $0xfffffffffffff000,%rdx
   42a86:	48 39 d3             	cmp    %rdx,%rbx
   42a89:	72 21                	jb     42aac <allocatable_physical_address(unsigned long)+0x54>
            || pa >= KERNEL_STACK_TOP)
   42a8b:	48 8d 93 00 10 f8 ff 	lea    -0x7f000(%rbx),%rdx
        && (pa < KERNEL_STACK_TOP - PAGESIZE
   42a92:	48 81 fa ff 0f 00 00 	cmp    $0xfff,%rdx
   42a99:	76 11                	jbe    42aac <allocatable_physical_address(unsigned long)+0x54>
        && pa < MEMSIZE_PHYSICAL;
   42a9b:	48 81 fb ff ff 1f 00 	cmp    $0x1fffff,%rbx
   42aa2:	0f 96 c0             	setbe  %al
   42aa5:	eb 05                	jmp    42aac <allocatable_physical_address(unsigned long)+0x54>
   42aa7:	b8 00 00 00 00       	mov    $0x0,%eax
}
   42aac:	48 8b 5d f8          	mov    -0x8(%rbp),%rbx
   42ab0:	c9                   	leave
   42ab1:	c3                   	ret

0000000000042ab2 <init_process(proc*, int)>:
void init_process(proc* p, int flags) {
   42ab2:	f3 0f 1e fa          	endbr64
   42ab6:	55                   	push   %rbp
   42ab7:	48 89 e5             	mov    %rsp,%rbp
   42aba:	41 54                	push   %r12
   42abc:	53                   	push   %rbx
   42abd:	48 89 fb             	mov    %rdi,%rbx
   42ac0:	41 89 f4             	mov    %esi,%r12d
    memset(&p->regs, 0, sizeof(p->regs));
   42ac3:	48 8d 7f 10          	lea    0x10(%rdi),%rdi
   42ac7:	ba c0 00 00 00       	mov    $0xc0,%edx
   42acc:	be 00 00 00 00       	mov    $0x0,%esi
   42ad1:	e8 dc 26 00 00       	call   451b2 <memset>
    p->regs.reg_cs = SEGSEL_APP_CODE | 3;
   42ad6:	48 c7 83 b0 00 00 00 	movq   $0x1b,0xb0(%rbx)
   42add:	1b 00 00 00 
    p->regs.reg_fs = SEGSEL_APP_DATA | 3;
   42ae1:	48 c7 83 88 00 00 00 	movq   $0x23,0x88(%rbx)
   42ae8:	23 00 00 00 
    p->regs.reg_gs = SEGSEL_APP_DATA | 3;
   42aec:	48 c7 83 90 00 00 00 	movq   $0x23,0x90(%rbx)
   42af3:	23 00 00 00 
    p->regs.reg_ss = SEGSEL_APP_DATA | 3;
   42af7:	48 c7 83 c8 00 00 00 	movq   $0x23,0xc8(%rbx)
   42afe:	23 00 00 00 
    if (flags & PROCINIT_ALLOW_PROGRAMMED_IO) {
   42b02:	44 89 e0             	mov    %r12d,%eax
   42b05:	83 e0 01             	and    $0x1,%eax
        p->regs.reg_rflags |= EFLAGS_IOPL_3;
   42b08:	83 f8 01             	cmp    $0x1,%eax
   42b0b:	48 19 c0             	sbb    %rax,%rax
   42b0e:	48 25 00 d0 ff ff    	and    $0xffffffffffffd000,%rax
   42b14:	48 05 00 32 00 00    	add    $0x3200,%rax
    if (flags & PROCINIT_DISABLE_INTERRUPTS) {
   42b1a:	41 f6 c4 02          	test   $0x2,%r12b
   42b1e:	75 09                	jne    42b29 <init_process(proc*, int)+0x77>
   42b20:	48 89 83 b8 00 00 00 	mov    %rax,0xb8(%rbx)
   42b27:	eb 0a                	jmp    42b33 <init_process(proc*, int)+0x81>
        p->regs.reg_rflags &= ~EFLAGS_IF;
   42b29:	80 e4 fd             	and    $0xfd,%ah
   42b2c:	48 89 83 b8 00 00 00 	mov    %rax,0xb8(%rbx)
}
   42b33:	5b                   	pop    %rbx
   42b34:	41 5c                	pop    %r12
   42b36:	5d                   	pop    %rbp
   42b37:	c3                   	ret

0000000000042b38 <console_show_cursor(int)>:
void console_show_cursor(int cpos) {
   42b38:	f3 0f 1e fa          	endbr64
        cpos = 0;
   42b3c:	81 ff d1 07 00 00    	cmp    $0x7d1,%edi
   42b42:	b8 00 00 00 00       	mov    $0x0,%eax
   42b47:	0f 43 f8             	cmovae %eax,%edi
   42b4a:	be d4 03 00 00       	mov    $0x3d4,%esi
   42b4f:	b8 0e 00 00 00       	mov    $0xe,%eax
   42b54:	89 f2                	mov    %esi,%edx
   42b56:	ee                   	out    %al,(%dx)
    outb(0x3D5, cpos / 256);
   42b57:	8d 87 ff 00 00 00    	lea    0xff(%rdi),%eax
   42b5d:	85 ff                	test   %edi,%edi
   42b5f:	0f 49 c7             	cmovns %edi,%eax
   42b62:	c1 f8 08             	sar    $0x8,%eax
   42b65:	b9 d5 03 00 00       	mov    $0x3d5,%ecx
   42b6a:	89 ca                	mov    %ecx,%edx
   42b6c:	ee                   	out    %al,(%dx)
   42b6d:	b8 0f 00 00 00       	mov    $0xf,%eax
   42b72:	89 f2                	mov    %esi,%edx
   42b74:	ee                   	out    %al,(%dx)
    outb(0x3D5, cpos % 256);
   42b75:	89 fa                	mov    %edi,%edx
   42b77:	c1 fa 1f             	sar    $0x1f,%edx
   42b7a:	c1 ea 18             	shr    $0x18,%edx
   42b7d:	8d 04 17             	lea    (%rdi,%rdx,1),%eax
   42b80:	0f b6 c0             	movzbl %al,%eax
   42b83:	29 d0                	sub    %edx,%eax
   42b85:	89 ca                	mov    %ecx,%edx
   42b87:	ee                   	out    %al,(%dx)
}
   42b88:	c3                   	ret

0000000000042b89 <keyboard_readc()>:
int keyboard_readc() {
   42b89:	f3 0f 1e fa          	endbr64
    asm volatile("inb %w1, %0" : "=a" (data) : "d" (port));
   42b8d:	ba 64 00 00 00       	mov    $0x64,%edx
   42b92:	ec                   	in     (%dx),%al
    if ((inb(KEYBOARD_STATUSREG) & KEYBOARD_STATUS_READY) == 0) {
   42b93:	a8 01                	test   $0x1,%al
   42b95:	0f 84 1d 01 00 00    	je     42cb8 <keyboard_readc()+0x12f>
   42b9b:	ba 60 00 00 00       	mov    $0x60,%edx
   42ba0:	ec                   	in     (%dx),%al
    uint8_t escape = last_escape;
   42ba1:	0f b6 15 60 84 02 00 	movzbl 0x28460(%rip),%edx        # 6b008 <keyboard_readc()::last_escape>
    last_escape = 0;
   42ba8:	c6 05 59 84 02 00 00 	movb   $0x0,0x28459(%rip)        # 6b008 <keyboard_readc()::last_escape>
    if (data == 0xE0) {         // mode shift
   42baf:	3c e0                	cmp    $0xe0,%al
   42bb1:	74 2a                	je     42bdd <keyboard_readc()+0x54>
    } else if (data & 0x80) {   // key release: matters only for modifier keys
   42bb3:	84 c0                	test   %al,%al
   42bb5:	78 33                	js     42bea <keyboard_readc()+0x61>
    int ch = (unsigned char) keymap[data | escape];
   42bb7:	09 c2                	or     %eax,%edx
   42bb9:	0f b6 d2             	movzbl %dl,%edx
   42bbc:	0f b6 82 80 6a 04 00 	movzbl 0x46a80(%rdx),%eax
    if (ch >= 'a' && ch <= 'z') {
   42bc3:	89 c1                	mov    %eax,%ecx
   42bc5:	8d 50 9f             	lea    -0x61(%rax),%edx
   42bc8:	83 fa 19             	cmp    $0x19,%edx
   42bcb:	77 76                	ja     42c43 <keyboard_readc()+0xba>
        if (modifiers & MOD_CONTROL) {
   42bcd:	0f b6 15 35 84 02 00 	movzbl 0x28435(%rip),%edx        # 6b009 <keyboard_readc()::modifiers>
   42bd4:	f6 c2 02             	test   $0x2,%dl
   42bd7:	74 50                	je     42c29 <keyboard_readc()+0xa0>
            ch -= 0x60;
   42bd9:	83 e8 60             	sub    $0x60,%eax
   42bdc:	c3                   	ret
        last_escape = 0x80;
   42bdd:	c6 05 24 84 02 00 80 	movb   $0x80,0x28424(%rip)        # 6b008 <keyboard_readc()::last_escape>
        return 0;
   42be4:	b8 00 00 00 00       	mov    $0x0,%eax
   42be9:	c3                   	ret
        int ch = keymap[(data & 0x7F) | escape];
   42bea:	83 e0 7f             	and    $0x7f,%eax
   42bed:	09 d0                	or     %edx,%eax
   42bef:	0f b6 c0             	movzbl %al,%eax
   42bf2:	0f b6 88 80 6a 04 00 	movzbl 0x46a80(%rax),%ecx
        if (ch >= KEY_SHIFT && ch < KEY_CAPSLOCK) {
   42bf9:	0f b6 d1             	movzbl %cl,%edx
   42bfc:	81 ea fa 00 00 00    	sub    $0xfa,%edx
        return 0;
   42c02:	b8 00 00 00 00       	mov    $0x0,%eax
        if (ch >= KEY_SHIFT && ch < KEY_CAPSLOCK) {
   42c07:	83 fa 02             	cmp    $0x2,%edx
   42c0a:	0f 87 ad 00 00 00    	ja     42cbd <keyboard_readc()+0x134>
            modifiers &= ~(1 << (ch - KEY_SHIFT));
   42c10:	83 c1 06             	add    $0x6,%ecx
   42c13:	0f b6 05 ef 83 02 00 	movzbl 0x283ef(%rip),%eax        # 6b009 <keyboard_readc()::modifiers>
   42c1a:	0f b3 c8             	btr    %ecx,%eax
   42c1d:	88 05 e6 83 02 00    	mov    %al,0x283e6(%rip)        # 6b009 <keyboard_readc()::modifiers>
        return 0;
   42c23:	b8 00 00 00 00       	mov    $0x0,%eax
   42c28:	c3                   	ret
        } else if (!(modifiers & MOD_SHIFT) != !(modifiers & MOD_CAPSLOCK)) {
   42c29:	89 d1                	mov    %edx,%ecx
   42c2b:	83 f1 01             	xor    $0x1,%ecx
   42c2e:	83 e1 01             	and    $0x1,%ecx
   42c31:	c0 ea 03             	shr    $0x3,%dl
   42c34:	83 f2 01             	xor    $0x1,%edx
   42c37:	83 e2 01             	and    $0x1,%edx
            ch -= 0x20;
   42c3a:	8d 70 e0             	lea    -0x20(%rax),%esi
   42c3d:	38 d1                	cmp    %dl,%cl
   42c3f:	0f 45 c6             	cmovne %esi,%eax
   42c42:	c3                   	ret
    } else if (ch >= KEY_CAPSLOCK) {
   42c43:	3d fc 00 00 00       	cmp    $0xfc,%eax
   42c48:	7e 19                	jle    42c63 <keyboard_readc()+0xda>
        modifiers ^= 1 << (ch - KEY_SHIFT);
   42c4a:	8d 88 06 ff ff ff    	lea    -0xfa(%rax),%ecx
   42c50:	ba 01 00 00 00       	mov    $0x1,%edx
   42c55:	d3 e2                	shl    %cl,%edx
   42c57:	30 15 ac 83 02 00    	xor    %dl,0x283ac(%rip)        # 6b009 <keyboard_readc()::modifiers>
        ch = 0;
   42c5d:	b8 00 00 00 00       	mov    $0x0,%eax
   42c62:	c3                   	ret
    } else if (ch >= KEY_SHIFT) {
   42c63:	3d f9 00 00 00       	cmp    $0xf9,%eax
   42c68:	7e 19                	jle    42c83 <keyboard_readc()+0xfa>
        modifiers |= 1 << (ch - KEY_SHIFT);
   42c6a:	8d 88 06 ff ff ff    	lea    -0xfa(%rax),%ecx
   42c70:	ba 01 00 00 00       	mov    $0x1,%edx
   42c75:	d3 e2                	shl    %cl,%edx
   42c77:	08 15 8c 83 02 00    	or     %dl,0x2838c(%rip)        # 6b009 <keyboard_readc()::modifiers>
        ch = 0;
   42c7d:	b8 00 00 00 00       	mov    $0x0,%eax
   42c82:	c3                   	ret
    } else if (ch >= CKEY(0) && ch <= CKEY(21)) {
   42c83:	83 c1 80             	add    $0xffffff80,%ecx
   42c86:	83 f9 15             	cmp    $0x15,%ecx
   42c89:	77 18                	ja     42ca3 <keyboard_readc()+0x11a>
        ch = complex_keymap[ch - CKEY(0)].map[modifiers & 3];
   42c8b:	0f b6 15 77 83 02 00 	movzbl 0x28377(%rip),%edx        # 6b009 <keyboard_readc()::modifiers>
   42c92:	83 e2 03             	and    $0x3,%edx
   42c95:	83 c0 80             	add    $0xffffff80,%eax
   42c98:	48 98                	cltq
   42c9a:	0f b6 84 82 20 6a 04 	movzbl 0x46a20(%rdx,%rax,4),%eax
   42ca1:	00 
   42ca2:	c3                   	ret
    } else if (ch < 0x80 && (modifiers & MOD_CONTROL)) {
   42ca3:	83 f8 7f             	cmp    $0x7f,%eax
   42ca6:	7f 15                	jg     42cbd <keyboard_readc()+0x134>
        ch = 0;
   42ca8:	f6 05 5a 83 02 00 02 	testb  $0x2,0x2835a(%rip)        # 6b009 <keyboard_readc()::modifiers>
   42caf:	ba 00 00 00 00       	mov    $0x0,%edx
   42cb4:	0f 45 c2             	cmovne %edx,%eax
   42cb7:	c3                   	ret
        return -1;
   42cb8:	b8 ff ff ff ff       	mov    $0xffffffff,%eax
}
   42cbd:	c3                   	ret

0000000000042cbe <log_vprintf(char const*, __va_list_tag*)>:
void log_vprintf(const char* format, va_list val) {
   42cbe:	f3 0f 1e fa          	endbr64
   42cc2:	55                   	push   %rbp
   42cc3:	48 89 e5             	mov    %rsp,%rbp
   42cc6:	48 83 ec 10          	sub    $0x10,%rsp
   42cca:	48 89 f2             	mov    %rsi,%rdx
    log_printer pr;
   42ccd:	48 c7 45 f0 f0 69 04 	movq   $0x469f0,-0x10(%rbp)
   42cd4:	00 
   42cd5:	c7 45 f8 00 07 00 00 	movl   $0x700,-0x8(%rbp)
    pr.vprintf(format, val);
   42cdc:	48 89 fe             	mov    %rdi,%rsi
   42cdf:	48 8d 7d f0          	lea    -0x10(%rbp),%rdi
   42ce3:	e8 40 26 00 00       	call   45328 <printer::vprintf(char const*, __va_list_tag*)>
}
   42ce8:	c9                   	leave
   42ce9:	c3                   	ret

0000000000042cea <log_printf(char const*, ...)>:
void log_printf(const char* format, ...) {
   42cea:	f3 0f 1e fa          	endbr64
   42cee:	55                   	push   %rbp
   42cef:	48 89 e5             	mov    %rsp,%rbp
   42cf2:	48 83 ec 50          	sub    $0x50,%rsp
   42cf6:	48 89 75 d8          	mov    %rsi,-0x28(%rbp)
   42cfa:	48 89 55 e0          	mov    %rdx,-0x20(%rbp)
   42cfe:	48 89 4d e8          	mov    %rcx,-0x18(%rbp)
   42d02:	4c 89 45 f0          	mov    %r8,-0x10(%rbp)
   42d06:	4c 89 4d f8          	mov    %r9,-0x8(%rbp)
    va_start(val, format);
   42d0a:	c7 45 b8 08 00 00 00 	movl   $0x8,-0x48(%rbp)
   42d11:	48 8d 45 10          	lea    0x10(%rbp),%rax
   42d15:	48 89 45 c0          	mov    %rax,-0x40(%rbp)
   42d19:	48 8d 45 d0          	lea    -0x30(%rbp),%rax
   42d1d:	48 89 45 c8          	mov    %rax,-0x38(%rbp)
    log_vprintf(format, val);
   42d21:	48 8d 75 b8          	lea    -0x48(%rbp),%rsi
   42d25:	e8 94 ff ff ff       	call   42cbe <log_vprintf(char const*, __va_list_tag*)>
}
   42d2a:	c9                   	leave
   42d2b:	c3                   	ret

0000000000042d2c <lookup_symbol(unsigned long, char const**, unsigned long*)>:
bool lookup_symbol(uintptr_t addr, const char** name, uintptr_t* start) {
   42d2c:	f3 0f 1e fa          	endbr64
   42d30:	55                   	push   %rbp
   42d31:	48 89 e5             	mov    %rsp,%rbp
   42d34:	41 54                	push   %r12
   42d36:	53                   	push   %rbx
   42d37:	49 89 f8             	mov    %rdi,%r8
   42d3a:	48 89 f3             	mov    %rsi,%rbx
   42d3d:	49 89 d4             	mov    %rdx,%r12
    if (!kernel_pagetable[2].entry[SYMTAB_ADDR / 0x200000]) {
   42d40:	48 83 3d f8 52 02 00 	cmpq   $0x0,0x252f8(%rip)        # 68040 <kernel_pagetable+0x2040>
   42d47:	00 
   42d48:	75 0b                	jne    42d55 <lookup_symbol(unsigned long, char const**, unsigned long*)+0x29>
        kernel_pagetable[2].entry[SYMTAB_ADDR / 0x200000] =
   42d4a:	48 c7 05 eb 52 02 00 	movq   $0x1000083,0x252eb(%rip)        # 68040 <kernel_pagetable+0x2040>
   42d51:	83 00 00 01 
    size_t r = symtab.nsym;
   42d55:	4c 8b 1d 6c 53 00 00 	mov    0x536c(%rip),%r11        # 480c8 <symtab+0x8>
        auto& sym = symtab.sym[m];
   42d5c:	4c 8b 15 5d 53 00 00 	mov    0x535d(%rip),%r10        # 480c0 <symtab>
    size_t r = symtab.nsym;
   42d63:	4c 89 d9             	mov    %r11,%rcx
    size_t l = 0;
   42d66:	ba 00 00 00 00       	mov    $0x0,%edx
    while (l < r) {
   42d6b:	eb 25                	jmp    42d92 <lookup_symbol(unsigned long, char const**, unsigned long*)+0x66>
                ? addr < sym.st_value + 0x1000
   42d6d:	4c 8d 8e 00 10 00 00 	lea    0x1000(%rsi),%r9
            && (m + 1 == symtab.nsym
   42d74:	4d 39 c8             	cmp    %r9,%r8
   42d77:	73 11                	jae    42d8a <lookup_symbol(unsigned long, char const**, unsigned long*)+0x5e>
            && (sym.st_size == 0 || addr <= sym.st_value + sym.st_size)) {
   42d79:	4c 8b 4f 10          	mov    0x10(%rdi),%r9
   42d7d:	4d 85 c9             	test   %r9,%r9
   42d80:	74 43                	je     42dc5 <lookup_symbol(unsigned long, char const**, unsigned long*)+0x99>
   42d82:	49 01 f1             	add    %rsi,%r9
   42d85:	4d 39 c1             	cmp    %r8,%r9
   42d88:	73 3b                	jae    42dc5 <lookup_symbol(unsigned long, char const**, unsigned long*)+0x99>
        } else if (sym.st_value < addr) {
   42d8a:	4c 39 c6             	cmp    %r8,%rsi
   42d8d:	72 6a                	jb     42df9 <lookup_symbol(unsigned long, char const**, unsigned long*)+0xcd>
    size_t l = 0;
   42d8f:	48 89 c1             	mov    %rax,%rcx
    while (l < r) {
   42d92:	48 39 ca             	cmp    %rcx,%rdx
   42d95:	73 68                	jae    42dff <lookup_symbol(unsigned long, char const**, unsigned long*)+0xd3>
        size_t m = l + ((r - l) >> 1);
   42d97:	48 89 c8             	mov    %rcx,%rax
   42d9a:	48 29 d0             	sub    %rdx,%rax
   42d9d:	48 d1 e8             	shr    $1,%rax
   42da0:	48 01 d0             	add    %rdx,%rax
        auto& sym = symtab.sym[m];
   42da3:	48 8d 34 40          	lea    (%rax,%rax,2),%rsi
   42da7:	49 8d 3c f2          	lea    (%r10,%rsi,8),%rdi
        if (sym.st_value <= addr
   42dab:	48 8b 77 08          	mov    0x8(%rdi),%rsi
   42daf:	49 39 f0             	cmp    %rsi,%r8
   42db2:	72 db                	jb     42d8f <lookup_symbol(unsigned long, char const**, unsigned long*)+0x63>
            && (m + 1 == symtab.nsym
   42db4:	4c 8d 48 01          	lea    0x1(%rax),%r9
        if (sym.st_value <= addr
   42db8:	4d 39 d9             	cmp    %r11,%r9
   42dbb:	74 b0                	je     42d6d <lookup_symbol(unsigned long, char const**, unsigned long*)+0x41>
                ? addr < sym.st_value + 0x1000
   42dbd:	4c 3b 47 20          	cmp    0x20(%rdi),%r8
   42dc1:	73 c7                	jae    42d8a <lookup_symbol(unsigned long, char const**, unsigned long*)+0x5e>
   42dc3:	eb b4                	jmp    42d79 <lookup_symbol(unsigned long, char const**, unsigned long*)+0x4d>
                return false;
   42dc5:	b8 00 00 00 00       	mov    $0x0,%eax
            if (!sym.st_value) {
   42dca:	48 85 f6             	test   %rsi,%rsi
   42dcd:	74 35                	je     42e04 <lookup_symbol(unsigned long, char const**, unsigned long*)+0xd8>
            if (name) {
   42dcf:	48 85 db             	test   %rbx,%rbx
   42dd2:	74 0c                	je     42de0 <lookup_symbol(unsigned long, char const**, unsigned long*)+0xb4>
                *name = symtab.strtab + sym.st_name;
   42dd4:	8b 07                	mov    (%rdi),%eax
   42dd6:	48 03 05 f3 52 00 00 	add    0x52f3(%rip),%rax        # 480d0 <symtab+0x10>
   42ddd:	48 89 03             	mov    %rax,(%rbx)
            return true;
   42de0:	b8 01 00 00 00       	mov    $0x1,%eax
            if (start) {
   42de5:	4d 85 e4             	test   %r12,%r12
   42de8:	74 1a                	je     42e04 <lookup_symbol(unsigned long, char const**, unsigned long*)+0xd8>
                *start = sym.st_value;
   42dea:	48 8b 47 08          	mov    0x8(%rdi),%rax
   42dee:	49 89 04 24          	mov    %rax,(%r12)
            return true;
   42df2:	b8 01 00 00 00       	mov    $0x1,%eax
   42df7:	eb 0b                	jmp    42e04 <lookup_symbol(unsigned long, char const**, unsigned long*)+0xd8>
            l = m + 1;
   42df9:	48 8d 50 01          	lea    0x1(%rax),%rdx
   42dfd:	eb 93                	jmp    42d92 <lookup_symbol(unsigned long, char const**, unsigned long*)+0x66>
    return false;
   42dff:	b8 00 00 00 00       	mov    $0x0,%eax
}
   42e04:	5b                   	pop    %rbx
   42e05:	41 5c                	pop    %r12
   42e07:	5d                   	pop    %rbp
   42e08:	c3                   	ret

0000000000042e09 <error_vprintf(int, int, char const*, __va_list_tag*)>:
void error_vprintf(int cpos, int color, const char* format, va_list val) {
   42e09:	f3 0f 1e fa          	endbr64
   42e0d:	55                   	push   %rbp
   42e0e:	48 89 e5             	mov    %rsp,%rbp
   42e11:	41 54                	push   %r12
   42e13:	53                   	push   %rbx
   42e14:	48 83 ec 20          	sub    $0x20,%rsp
   42e18:	48 89 d3             	mov    %rdx,%rbx
   42e1b:	49 89 cc             	mov    %rcx,%r12
    error_printer pr(cpos, cpos < 0, color);
   42e1e:	89 fa                	mov    %edi,%edx
   42e20:	c1 ea 1f             	shr    $0x1f,%edx
        : console_printer(cpos, scroll, color) {
   42e23:	89 f1                	mov    %esi,%ecx
   42e25:	89 fe                	mov    %edi,%esi
   42e27:	48 8d 7d d0          	lea    -0x30(%rbp),%rdi
   42e2b:	e8 16 2e 00 00       	call   45c46 <console_printer::console_printer(int, bool, int)>
   42e30:	48 c7 45 d0 08 6a 04 	movq   $0x46a08,-0x30(%rbp)
   42e37:	00 
    pr.vprintf(format, val);
   42e38:	4c 89 e2             	mov    %r12,%rdx
   42e3b:	48 89 de             	mov    %rbx,%rsi
   42e3e:	48 8d 7d d0          	lea    -0x30(%rbp),%rdi
   42e42:	e8 e1 24 00 00       	call   45328 <printer::vprintf(char const*, __va_list_tag*)>
}
   42e47:	48 83 c4 20          	add    $0x20,%rsp
   42e4b:	5b                   	pop    %rbx
   42e4c:	41 5c                	pop    %r12
   42e4e:	5d                   	pop    %rbp
   42e4f:	c3                   	ret

0000000000042e50 <strlcpy_from_user(char*, vmiter, unsigned long)>:
void strlcpy_from_user(char* buf, vmiter it, size_t maxlen) {
   42e50:	f3 0f 1e fa          	endbr64
   42e54:	55                   	push   %rbp
   42e55:	48 89 e5             	mov    %rsp,%rbp
   42e58:	41 57                	push   %r15
   42e5a:	41 56                	push   %r14
   42e5c:	41 55                	push   %r13
   42e5e:	41 54                	push   %r12
   42e60:	53                   	push   %rbx
   42e61:	48 83 ec 08          	sub    $0x8,%rsp
   42e65:	49 89 fc             	mov    %rdi,%r12
   42e68:	49 89 f7             	mov    %rsi,%r15
    while (i + 1 < maxlen && it.user()) {
   42e6b:	48 83 fe 01          	cmp    $0x1,%rsi
   42e6f:	0f 86 bb 00 00 00    	jbe    42f30 <strlcpy_from_user(char*, vmiter, unsigned long)+0xe0>
   42e75:	4c 8d 6e ff          	lea    -0x1(%rsi),%r13
   42e79:	bb 00 00 00 00       	mov    $0x0,%ebx
    return ~(~uintptr_t(0) << lbits);
   42e7e:	49 c7 c6 ff ff ff ff 	mov    $0xffffffffffffffff,%r14
   42e85:	eb 27                	jmp    42eae <strlcpy_from_user(char*, vmiter, unsigned long)+0x5e>
        return nullptr;
   42e87:	b8 00 00 00 00       	mov    $0x0,%eax
        buf[i] = *it.kptr<const char*>();
   42e8c:	0f b6 00             	movzbl (%rax),%eax
   42e8f:	41 88 04 34          	mov    %al,(%r12,%rsi,1)
    return find(va_ + 1);
   42e93:	48 8b 45 28          	mov    0x28(%rbp),%rax
   42e97:	48 8d 70 01          	lea    0x1(%rax),%rsi
        real_find(va, false);
   42e9b:	ba 00 00 00 00       	mov    $0x0,%edx
   42ea0:	48 8d 7d 10          	lea    0x10(%rbp),%rdi
   42ea4:	e8 7d f4 ff ff       	call   42326 <vmiter::real_find(unsigned long, bool)>
    while (i + 1 < maxlen && it.user()) {
   42ea9:	49 39 dd             	cmp    %rbx,%r13
   42eac:	74 66                	je     42f14 <strlcpy_from_user(char*, vmiter, unsigned long)+0xc4>
   42eae:	48 89 de             	mov    %rbx,%rsi
   42eb1:	48 83 c3 01          	add    $0x1,%rbx
    uint64_t ph = *pep_ & perm_;
   42eb5:	48 8b 45 18          	mov    0x18(%rbp),%rax
   42eb9:	48 8b 10             	mov    (%rax),%rdx
   42ebc:	48 63 4d 24          	movslq 0x24(%rbp),%rcx
   42ec0:	48 21 d1             	and    %rdx,%rcx
    return ph & -(ph & PTE_P);
   42ec3:	48 89 c8             	mov    %rcx,%rax
   42ec6:	83 e0 01             	and    $0x1,%eax
   42ec9:	48 f7 d8             	neg    %rax
   42ecc:	48 21 c8             	and    %rcx,%rax
   42ecf:	48 f7 d0             	not    %rax
   42ed2:	a8 05                	test   $0x5,%al
   42ed4:	75 41                	jne    42f17 <strlcpy_from_user(char*, vmiter, unsigned long)+0xc7>
    if (*pep_ & PTE_P) {
   42ed6:	f6 c2 01             	test   $0x1,%dl
   42ed9:	74 ac                	je     42e87 <strlcpy_from_user(char*, vmiter, unsigned long)+0x37>
        if (lbits_ > PAGEOFFBITS) {
   42edb:	8b 4d 20             	mov    0x20(%rbp),%ecx
        uintptr_t pa = *pep_ & PTE_PAMASK;
   42ede:	48 bf 00 f0 ff ff ff 	movabs $0xffffffffff000,%rdi
   42ee5:	ff 0f 00 
   42ee8:	48 21 d7             	and    %rdx,%rdi
   42eeb:	48 b8 00 e0 ff ff ff 	movabs $0xfffffffffe000,%rax
   42ef2:	ff 0f 00 
   42ef5:	48 21 c2             	and    %rax,%rdx
   42ef8:	83 f9 0c             	cmp    $0xc,%ecx
   42efb:	48 0f 4f fa          	cmovg  %rdx,%rdi
    return ~(~uintptr_t(0) << lbits);
   42eff:	4c 89 f0             	mov    %r14,%rax
   42f02:	48 d3 e0             	shl    %cl,%rax
   42f05:	48 f7 d0             	not    %rax
        return pa + (va_ & lbits_mask(lbits_));
   42f08:	48 23 45 28          	and    0x28(%rbp),%rax
   42f0c:	48 01 f8             	add    %rdi,%rax
        return reinterpret_cast<T>(pa());
   42f0f:	e9 78 ff ff ff       	jmp    42e8c <strlcpy_from_user(char*, vmiter, unsigned long)+0x3c>
   42f14:	48 89 de             	mov    %rbx,%rsi
    if (i < maxlen) {
   42f17:	4c 39 fe             	cmp    %r15,%rsi
   42f1a:	73 05                	jae    42f21 <strlcpy_from_user(char*, vmiter, unsigned long)+0xd1>
        buf[i] = '\0';
   42f1c:	41 c6 04 34 00       	movb   $0x0,(%r12,%rsi,1)
}
   42f21:	48 83 c4 08          	add    $0x8,%rsp
   42f25:	5b                   	pop    %rbx
   42f26:	41 5c                	pop    %r12
   42f28:	41 5d                	pop    %r13
   42f2a:	41 5e                	pop    %r14
   42f2c:	41 5f                	pop    %r15
   42f2e:	5d                   	pop    %rbp
   42f2f:	c3                   	ret
    size_t i = 0;
   42f30:	be 00 00 00 00       	mov    $0x0,%esi
   42f35:	eb e0                	jmp    42f17 <strlcpy_from_user(char*, vmiter, unsigned long)+0xc7>

0000000000042f37 <print_backtrace(printer&, regstate const&, x86_64_pagetable*, bool)>:
                     x86_64_pagetable* pt, bool exclude_rip = false) {
   42f37:	f3 0f 1e fa          	endbr64
   42f3b:	55                   	push   %rbp
   42f3c:	48 89 e5             	mov    %rsp,%rbp
   42f3f:	41 57                	push   %r15
   42f41:	41 56                	push   %r14
   42f43:	41 55                	push   %r13
   42f45:	41 54                	push   %r12
   42f47:	53                   	push   %rbx
   42f48:	48 83 ec 68          	sub    $0x68,%rsp
   42f4c:	49 89 fe             	mov    %rdi,%r14
   42f4f:	48 89 f3             	mov    %rsi,%rbx
   42f52:	89 8d 7c ff ff ff    	mov    %ecx,-0x84(%rbp)
        : backtracer(regs, round_up(regs.reg_rsp, PAGESIZE), pt) {
   42f58:	4c 8b be b0 00 00 00 	mov    0xb0(%rsi),%r15
   42f5f:	4d 8d a7 ff 0f 00 00 	lea    0xfff(%r15),%r12
   42f66:	49 81 e4 00 f0 ff ff 	and    $0xfffffffffffff000,%r12
        : rbp_(regs.reg_rbp), rsp_(regs.reg_rsp), stack_top_(stack_top),
   42f6d:	48 8b 46 20          	mov    0x20(%rsi),%rax
   42f71:	48 89 45 a8          	mov    %rax,-0x58(%rbp)
   42f75:	4c 89 7d b0          	mov    %r15,-0x50(%rbp)
   42f79:	4c 89 65 b8          	mov    %r12,-0x48(%rbp)
          pt_(pt) {
   42f7d:	c6 45 c0 00          	movb   $0x0,-0x40(%rbp)
   42f81:	48 89 55 c8          	mov    %rdx,-0x38(%rbp)
          && stack_top_ >= rsp_
   42f85:	4d 39 fc             	cmp    %r15,%r12
   42f88:	72 1a                	jb     42fa4 <print_backtrace(printer&, regstate const&, x86_64_pagetable*, bool)+0x6d>
   42f8a:	49 89 d5             	mov    %rdx,%r13
   42f8d:	48 85 d2             	test   %rdx,%rdx
   42f90:	74 12                	je     42fa4 <print_backtrace(printer&, regstate const&, x86_64_pagetable*, bool)+0x6d>
          && stack_top_ - rsp_ >= 8
   42f92:	4c 89 e0             	mov    %r12,%rax
   42f95:	4c 29 f8             	sub    %r15,%rax
   42f98:	48 83 f8 07          	cmp    $0x7,%rax
   42f9c:	76 06                	jbe    42fa4 <print_backtrace(printer&, regstate const&, x86_64_pagetable*, bool)+0x6d>
          && (rsp_ & 7) == 0
   42f9e:	41 f6 c7 07          	test   $0x7,%r15b
   42fa2:	74 5f                	je     43003 <print_backtrace(printer&, regstate const&, x86_64_pagetable*, bool)+0xcc>
            check();
   42fa4:	48 8d 7d a8          	lea    -0x58(%rbp),%rdi
   42fa8:	e8 9b f9 ff ff       	call   42948 <(anonymous namespace)::backtracer::check()>
        return rsp_;
   42fad:	4c 8b 6d b0          	mov    -0x50(%rbp),%r13
        return rbp_;
   42fb1:	48 8b 4d a8          	mov    -0x58(%rbp),%rcx
        && round_up(bt.rsp(), PAGESIZE) == round_down(bt.rbp(), PAGESIZE)) {
   42fb5:	49 39 cd             	cmp    %rcx,%r13
   42fb8:	74 16                	je     42fd0 <print_backtrace(printer&, regstate const&, x86_64_pagetable*, bool)+0x99>
   42fba:	49 8d 85 ff 0f 00 00 	lea    0xfff(%r13),%rax
   42fc1:	48 31 c8             	xor    %rcx,%rax
   42fc4:	48 3d ff 0f 00 00    	cmp    $0xfff,%rax
   42fca:	0f 86 8b 02 00 00    	jbe    4325b <print_backtrace(printer&, regstate const&, x86_64_pagetable*, bool)+0x324>
    if (!exclude_rip && regs.reg_rip) {
   42fd0:	80 bd 7c ff ff ff 00 	cmpb   $0x0,-0x84(%rbp)
   42fd7:	75 10                	jne    42fe9 <print_backtrace(printer&, regstate const&, x86_64_pagetable*, bool)+0xb2>
   42fd9:	48 8b bb 98 00 00 00 	mov    0x98(%rbx),%rdi
   42fe0:	48 85 ff             	test   %rdi,%rdi
   42fe3:	0f 85 8c 02 00 00    	jne    43275 <print_backtrace(printer&, regstate const&, x86_64_pagetable*, bool)+0x33e>
    for (int frame = 1; bt.ok(); bt.step(), ++frame) {
   42fe9:	4d 85 ed             	test   %r13,%r13
   42fec:	0f 84 8d 05 00 00    	je     4357f <print_backtrace(printer&, regstate const&, x86_64_pagetable*, bool)+0x648>
   42ff2:	bb 01 00 00 00       	mov    $0x1,%ebx
    return ~(~uintptr_t(0) << lbits);
   42ff7:	49 c7 c7 ff ff ff ff 	mov    $0xffffffffffffffff,%r15
   42ffe:	e9 27 03 00 00       	jmp    4332a <print_backtrace(printer&, regstate const&, x86_64_pagetable*, bool)+0x3f3>
    : pt_(pt), pep_(&pt_->entry[0]), lbits_(initial_lbits),
   43003:	48 89 55 88          	mov    %rdx,-0x78(%rbp)
   43007:	48 89 55 90          	mov    %rdx,-0x70(%rbp)
   4300b:	c7 45 98 27 00 00 00 	movl   $0x27,-0x68(%rbp)
      perm_(initial_perm), va_(0) {
   43012:	c7 45 9c ff 0f 00 00 	movl   $0xfff,-0x64(%rbp)
   43019:	48 c7 45 a0 00 00 00 	movq   $0x0,-0x60(%rbp)
   43020:	00 
    real_find(va, false);
   43021:	ba 00 00 00 00       	mov    $0x0,%edx
   43026:	4c 89 fe             	mov    %r15,%rsi
   43029:	48 8d 7d 88          	lea    -0x78(%rbp),%rdi
   4302d:	e8 f4 f2 ff ff       	call   42326 <vmiter::real_find(unsigned long, bool)>
    return (range_perm(sz) & desired_perm) == desired_perm;
   43032:	be 08 00 00 00       	mov    $0x8,%esi
   43037:	48 8d 7d 88          	lea    -0x78(%rbp),%rdi
   4303b:	e8 d0 f5 ff ff       	call   42610 <vmiter::range_perm(unsigned long) const>
    if (!(pt_
   43040:	a8 01                	test   $0x1,%al
   43042:	0f 84 5c ff ff ff    	je     42fa4 <print_backtrace(printer&, regstate const&, x86_64_pagetable*, bool)+0x6d>
    : pt_(pt), pep_(&pt_->entry[0]), lbits_(initial_lbits),
   43048:	4c 89 6d 88          	mov    %r13,-0x78(%rbp)
   4304c:	4c 89 6d 90          	mov    %r13,-0x70(%rbp)
   43050:	c7 45 98 27 00 00 00 	movl   $0x27,-0x68(%rbp)
      perm_(initial_perm), va_(0) {
   43057:	c7 45 9c ff 0f 00 00 	movl   $0xfff,-0x64(%rbp)
   4305e:	48 c7 45 a0 00 00 00 	movq   $0x0,-0x60(%rbp)
   43065:	00 
    real_find(va, false);
   43066:	ba 00 00 00 00       	mov    $0x0,%edx
   4306b:	4c 89 fe             	mov    %r15,%rsi
   4306e:	48 8d 7d 88          	lea    -0x78(%rbp),%rdi
   43072:	e8 af f2 ff ff       	call   42326 <vmiter::real_find(unsigned long, bool)>
    if (*pep_ & PTE_P) {
   43077:	48 8b 45 90          	mov    -0x70(%rbp),%rax
   4307b:	48 8b 00             	mov    (%rax),%rax
   4307e:	a8 01                	test   $0x1,%al
   43080:	0f 84 ab 00 00 00    	je     43131 <print_backtrace(printer&, regstate const&, x86_64_pagetable*, bool)+0x1fa>
        if (lbits_ > PAGEOFFBITS) {
   43086:	8b 4d 98             	mov    -0x68(%rbp),%ecx
            pa &= ~0x1000UL;
   43089:	48 ba 00 e0 ff ff ff 	movabs $0xfffffffffe000,%rdx
   43090:	ff 0f 00 
   43093:	48 21 c2             	and    %rax,%rdx
        if (lbits_ > PAGEOFFBITS) {
   43096:	83 f9 0c             	cmp    $0xc,%ecx
   43099:	7f 0d                	jg     430a8 <print_backtrace(printer&, regstate const&, x86_64_pagetable*, bool)+0x171>
        uintptr_t pa = *pep_ & PTE_PAMASK;
   4309b:	48 ba 00 f0 ff ff ff 	movabs $0xffffffffff000,%rdx
   430a2:	ff 0f 00 
   430a5:	48 21 c2             	and    %rax,%rdx
    return ~(~uintptr_t(0) << lbits);
   430a8:	48 c7 c0 ff ff ff ff 	mov    $0xffffffffffffffff,%rax
   430af:	48 d3 e0             	shl    %cl,%rax
   430b2:	48 f7 d0             	not    %rax
        return pa + (va_ & lbits_mask(lbits_));
   430b5:	48 23 45 a0          	and    -0x60(%rbp),%rax
   430b9:	48 01 d0             	add    %rdx,%rax
        return *vmiter(pt_, va).kptr<const uintptr_t*>();
   430bc:	4c 8b 38             	mov    (%rax),%r15
    if ((intptr_t) (retaddr - regs.reg_rip) > 0x10000
   430bf:	4c 89 f8             	mov    %r15,%rax
   430c2:	48 2b 83 98 00 00 00 	sub    0x98(%rbx),%rax
   430c9:	48 3d 00 00 01 00    	cmp    $0x10000,%rax
   430cf:	0f 8f cf fe ff ff    	jg     42fa4 <print_backtrace(printer&, regstate const&, x86_64_pagetable*, bool)+0x6d>
        || (retaddr >= stack_top_ - PAGESIZE && retaddr <= stack_top_)) {
   430d5:	49 8d 84 24 00 f0 ff 	lea    -0x1000(%r12),%rax
   430dc:	ff 
   430dd:	49 39 c7             	cmp    %rax,%r15
   430e0:	72 09                	jb     430eb <print_backtrace(printer&, regstate const&, x86_64_pagetable*, bool)+0x1b4>
   430e2:	4d 39 fc             	cmp    %r15,%r12
   430e5:	0f 83 b9 fe ff ff    	jae    42fa4 <print_backtrace(printer&, regstate const&, x86_64_pagetable*, bool)+0x6d>
    : pt_(pt), pep_(&pt_->entry[0]), lbits_(initial_lbits),
   430eb:	4c 89 6d 88          	mov    %r13,-0x78(%rbp)
   430ef:	4c 89 6d 90          	mov    %r13,-0x70(%rbp)
   430f3:	c7 45 98 27 00 00 00 	movl   $0x27,-0x68(%rbp)
      perm_(initial_perm), va_(0) {
   430fa:	c7 45 9c ff 0f 00 00 	movl   $0xfff,-0x64(%rbp)
   43101:	48 c7 45 a0 00 00 00 	movq   $0x0,-0x60(%rbp)
   43108:	00 
    vmiter it(pt_, retaddr - 5);
   43109:	49 8d 77 fb          	lea    -0x5(%r15),%rsi
    real_find(va, false);
   4310d:	ba 00 00 00 00       	mov    $0x0,%edx
   43112:	48 8d 7d 88          	lea    -0x78(%rbp),%rdi
   43116:	e8 0b f2 ff ff       	call   42326 <vmiter::real_find(unsigned long, bool)>
    for (n = 0; n < 5 && it.present(); ++it, ++n) {
   4311b:	48 8d 45 83          	lea    -0x7d(%rbp),%rax
   4311f:	48 89 85 70 ff ff ff 	mov    %rax,-0x90(%rbp)
   43126:	49 89 c5             	mov    %rax,%r13
   43129:	41 bc 00 00 00 00    	mov    $0x0,%r12d
   4312f:	eb 3b                	jmp    4316c <print_backtrace(printer&, regstate const&, x86_64_pagetable*, bool)+0x235>
        return nullptr;
   43131:	b8 00 00 00 00       	mov    $0x0,%eax
   43136:	eb 84                	jmp    430bc <print_backtrace(printer&, regstate const&, x86_64_pagetable*, bool)+0x185>
   43138:	b8 00 00 00 00       	mov    $0x0,%eax
        ibuf[n] = *it.kptr<unsigned char*>();
   4313d:	0f b6 00             	movzbl (%rax),%eax
   43140:	41 88 45 00          	mov    %al,0x0(%r13)
    return find(va_ + 1);
   43144:	48 8b 45 a0          	mov    -0x60(%rbp),%rax
   43148:	48 8d 70 01          	lea    0x1(%rax),%rsi
        real_find(va, false);
   4314c:	ba 00 00 00 00       	mov    $0x0,%edx
   43151:	48 8d 7d 88          	lea    -0x78(%rbp),%rdi
   43155:	e8 cc f1 ff ff       	call   42326 <vmiter::real_find(unsigned long, bool)>
    for (n = 0; n < 5 && it.present(); ++it, ++n) {
   4315a:	41 83 c4 01          	add    $0x1,%r12d
   4315e:	49 83 c5 01          	add    $0x1,%r13
   43162:	41 83 fc 05          	cmp    $0x5,%r12d
   43166:	0f 84 9f 03 00 00    	je     4350b <print_backtrace(printer&, regstate const&, x86_64_pagetable*, bool)+0x5d4>
    uint64_t ph = *pep_ & perm_;
   4316c:	48 8b 45 90          	mov    -0x70(%rbp),%rax
   43170:	48 8b 00             	mov    (%rax),%rax
   43173:	48 63 55 9c          	movslq -0x64(%rbp),%rdx
   43177:	48 21 c2             	and    %rax,%rdx
   4317a:	f6 c2 01             	test   $0x1,%dl
   4317d:	0f 84 21 fe ff ff    	je     42fa4 <print_backtrace(printer&, regstate const&, x86_64_pagetable*, bool)+0x6d>
    if (*pep_ & PTE_P) {
   43183:	a8 01                	test   $0x1,%al
   43185:	74 b1                	je     43138 <print_backtrace(printer&, regstate const&, x86_64_pagetable*, bool)+0x201>
        if (lbits_ > PAGEOFFBITS) {
   43187:	8b 4d 98             	mov    -0x68(%rbp),%ecx
        uintptr_t pa = *pep_ & PTE_PAMASK;
   4318a:	48 ba 00 f0 ff ff ff 	movabs $0xffffffffff000,%rdx
   43191:	ff 0f 00 
   43194:	48 21 c2             	and    %rax,%rdx
   43197:	48 be 00 e0 ff ff ff 	movabs $0xfffffffffe000,%rsi
   4319e:	ff 0f 00 
   431a1:	48 21 f0             	and    %rsi,%rax
   431a4:	83 f9 0c             	cmp    $0xc,%ecx
   431a7:	48 0f 4f d0          	cmovg  %rax,%rdx
    return ~(~uintptr_t(0) << lbits);
   431ab:	48 c7 c0 ff ff ff ff 	mov    $0xffffffffffffffff,%rax
   431b2:	48 d3 e0             	shl    %cl,%rax
   431b5:	48 f7 d0             	not    %rax
        return pa + (va_ & lbits_mask(lbits_));
   431b8:	48 23 45 a0          	and    -0x60(%rbp),%rax
   431bc:	48 01 d0             	add    %rdx,%rax
        return reinterpret_cast<T>(pa());
   431bf:	e9 79 ff ff ff       	jmp    4313d <print_backtrace(printer&, regstate const&, x86_64_pagetable*, bool)+0x206>
        real_find(va, false);
   431c4:	ba 00 00 00 00       	mov    $0x0,%edx
   431c9:	48 8d 7d 88          	lea    -0x78(%rbp),%rdi
   431cd:	e8 54 f1 ff ff       	call   42326 <vmiter::real_find(unsigned long, bool)>
   431d2:	e9 8c 03 00 00       	jmp    43563 <print_backtrace(printer&, regstate const&, x86_64_pagetable*, bool)+0x62c>
        return nullptr;
   431d7:	b8 00 00 00 00       	mov    $0x0,%eax
        ibuf[n] = *it.kptr<unsigned char*>();
   431dc:	0f b6 00             	movzbl (%rax),%eax
   431df:	48 8b 8d 70 ff ff ff 	mov    -0x90(%rbp),%rcx
   431e6:	88 01                	mov    %al,(%rcx)
    return find(va_ + 1);
   431e8:	48 8b 45 a0          	mov    -0x60(%rbp),%rax
   431ec:	48 8d 70 01          	lea    0x1(%rax),%rsi
        real_find(va, false);
   431f0:	ba 00 00 00 00       	mov    $0x0,%edx
   431f5:	48 8d 7d 88          	lea    -0x78(%rbp),%rdi
   431f9:	e8 28 f1 ff ff       	call   42326 <vmiter::real_find(unsigned long, bool)>
    for (n = 0; n < 5 && it.present(); ++it, ++n) {
   431fe:	41 83 c4 01          	add    $0x1,%r12d
   43202:	48 83 85 70 ff ff ff 	addq   $0x1,-0x90(%rbp)
   43209:	01 
   4320a:	41 83 fc 05          	cmp    $0x5,%r12d
   4320e:	0f 84 c9 02 00 00    	je     434dd <print_backtrace(printer&, regstate const&, x86_64_pagetable*, bool)+0x5a6>
    uint64_t ph = *pep_ & perm_;
   43214:	48 8b 45 90          	mov    -0x70(%rbp),%rax
   43218:	48 8b 00             	mov    (%rax),%rax
   4321b:	48 63 55 9c          	movslq -0x64(%rbp),%rdx
   4321f:	48 21 c2             	and    %rax,%rdx
   43222:	f6 c2 01             	test   $0x1,%dl
   43225:	0f 84 79 fd ff ff    	je     42fa4 <print_backtrace(printer&, regstate const&, x86_64_pagetable*, bool)+0x6d>
    if (*pep_ & PTE_P) {
   4322b:	a8 01                	test   $0x1,%al
   4322d:	74 a8                	je     431d7 <print_backtrace(printer&, regstate const&, x86_64_pagetable*, bool)+0x2a0>
        if (lbits_ > PAGEOFFBITS) {
   4322f:	8b 4d 98             	mov    -0x68(%rbp),%ecx
        uintptr_t pa = *pep_ & PTE_PAMASK;
   43232:	48 ba 00 f0 ff ff ff 	movabs $0xffffffffff000,%rdx
   43239:	ff 0f 00 
   4323c:	48 21 c2             	and    %rax,%rdx
   4323f:	4c 21 e8             	and    %r13,%rax
   43242:	83 f9 0c             	cmp    $0xc,%ecx
   43245:	48 0f 4f d0          	cmovg  %rax,%rdx
    return ~(~uintptr_t(0) << lbits);
   43249:	4c 89 f8             	mov    %r15,%rax
   4324c:	48 d3 e0             	shl    %cl,%rax
   4324f:	48 f7 d0             	not    %rax
        return pa + (va_ & lbits_mask(lbits_));
   43252:	48 23 45 a0          	and    -0x60(%rbp),%rax
   43256:	48 01 d0             	add    %rdx,%rax
        return reinterpret_cast<T>(pa());
   43259:	eb 81                	jmp    431dc <print_backtrace(printer&, regstate const&, x86_64_pagetable*, bool)+0x2a5>
        pr.printf("  warning: possible stack overflow (rsp %p, rbp %p)\n",
   4325b:	4c 89 ea             	mov    %r13,%rdx
   4325e:	be d8 65 04 00       	mov    $0x465d8,%esi
   43263:	4c 89 f7             	mov    %r14,%rdi
   43266:	b8 00 00 00 00       	mov    $0x0,%eax
   4326b:	e8 6c 29 00 00       	call   45bdc <printer::printf(char const*, ...)>
   43270:	e9 5b fd ff ff       	jmp    42fd0 <print_backtrace(printer&, regstate const&, x86_64_pagetable*, bool)+0x99>
        if (lookup_symbol(regs.reg_rip, &name, nullptr)) {
   43275:	ba 00 00 00 00       	mov    $0x0,%edx
   4327a:	48 8d 75 88          	lea    -0x78(%rbp),%rsi
   4327e:	e8 a9 fa ff ff       	call   42d2c <lookup_symbol(unsigned long, char const**, unsigned long*)>
   43283:	84 c0                	test   %al,%al
   43285:	74 22                	je     432a9 <print_backtrace(printer&, regstate const&, x86_64_pagetable*, bool)+0x372>
            pr.printf("  #0  %p  <%s>\n", regs.reg_rip, name);
   43287:	48 8b 93 98 00 00 00 	mov    0x98(%rbx),%rdx
   4328e:	48 8b 4d 88          	mov    -0x78(%rbp),%rcx
   43292:	be 56 60 04 00       	mov    $0x46056,%esi
   43297:	4c 89 f7             	mov    %r14,%rdi
   4329a:	b8 00 00 00 00       	mov    $0x0,%eax
   4329f:	e8 38 29 00 00       	call   45bdc <printer::printf(char const*, ...)>
   432a4:	e9 40 fd ff ff       	jmp    42fe9 <print_backtrace(printer&, regstate const&, x86_64_pagetable*, bool)+0xb2>
            pr.printf("  #0  %p\n", regs.reg_rip);
   432a9:	48 8b 93 98 00 00 00 	mov    0x98(%rbx),%rdx
   432b0:	be 66 60 04 00       	mov    $0x46066,%esi
   432b5:	4c 89 f7             	mov    %r14,%rdi
   432b8:	b8 00 00 00 00       	mov    $0x0,%eax
   432bd:	e8 1a 29 00 00       	call   45bdc <printer::printf(char const*, ...)>
   432c2:	e9 22 fd ff ff       	jmp    42fe9 <print_backtrace(printer&, regstate const&, x86_64_pagetable*, bool)+0xb2>
        return nullptr;
   432c7:	b8 00 00 00 00       	mov    $0x0,%eax
        return *vmiter(pt_, va).kptr<const uintptr_t*>();
   432cc:	4c 8b 28             	mov    (%rax),%r13
        if (lookup_symbol(ret_rip - 2, &name, nullptr)) {
   432cf:	49 8d 7d fe          	lea    -0x2(%r13),%rdi
   432d3:	ba 00 00 00 00       	mov    $0x0,%edx
   432d8:	48 8d 75 88          	lea    -0x78(%rbp),%rsi
   432dc:	e8 4b fa ff ff       	call   42d2c <lookup_symbol(unsigned long, char const**, unsigned long*)>
   432e1:	84 c0                	test   %al,%al
   432e3:	0f 84 4c 01 00 00    	je     43435 <print_backtrace(printer&, regstate const&, x86_64_pagetable*, bool)+0x4fe>
            pr.printf("  #%d  %p  <%s>\n", frame, ret_rip, name);
   432e9:	4c 8b 45 88          	mov    -0x78(%rbp),%r8
   432ed:	4c 89 e9             	mov    %r13,%rcx
   432f0:	89 da                	mov    %ebx,%edx
   432f2:	be 70 60 04 00       	mov    $0x46070,%esi
   432f7:	4c 89 f7             	mov    %r14,%rdi
   432fa:	b8 00 00 00 00       	mov    $0x0,%eax
   432ff:	e8 d8 28 00 00       	call   45bdc <printer::printf(char const*, ...)>
        if (leaf_) {
   43304:	45 84 e4             	test   %r12b,%r12b
   43307:	0f 84 44 01 00 00    	je     43451 <print_backtrace(printer&, regstate const&, x86_64_pagetable*, bool)+0x51a>
            leaf_ = false;
   4330d:	c6 45 c0 00          	movb   $0x0,-0x40(%rbp)
        check();
   43311:	48 8d 7d a8          	lea    -0x58(%rbp),%rdi
   43315:	e8 2e f6 ff ff       	call   42948 <(anonymous namespace)::backtracer::check()>
    for (int frame = 1; bt.ok(); bt.step(), ++frame) {
   4331a:	83 c3 01             	add    $0x1,%ebx
        return rsp_ != 0;
   4331d:	4c 8b 6d b0          	mov    -0x50(%rbp),%r13
    for (int frame = 1; bt.ok(); bt.step(), ++frame) {
   43321:	4d 85 ed             	test   %r13,%r13
   43324:	0f 84 55 02 00 00    	je     4357f <print_backtrace(printer&, regstate const&, x86_64_pagetable*, bool)+0x648>
        if (leaf_) {
   4332a:	44 0f b6 65 c0       	movzbl -0x40(%rbp),%r12d
   4332f:	45 84 e4             	test   %r12b,%r12b
   43332:	74 7b                	je     433af <print_backtrace(printer&, regstate const&, x86_64_pagetable*, bool)+0x478>
        return *vmiter(pt_, va).kptr<const uintptr_t*>();
   43334:	48 8b 45 c8          	mov    -0x38(%rbp),%rax
    : pt_(pt), pep_(&pt_->entry[0]), lbits_(initial_lbits),
   43338:	48 89 45 88          	mov    %rax,-0x78(%rbp)
   4333c:	48 89 45 90          	mov    %rax,-0x70(%rbp)
   43340:	c7 45 98 27 00 00 00 	movl   $0x27,-0x68(%rbp)
      perm_(initial_perm), va_(0) {
   43347:	c7 45 9c ff 0f 00 00 	movl   $0xfff,-0x64(%rbp)
   4334e:	48 c7 45 a0 00 00 00 	movq   $0x0,-0x60(%rbp)
   43355:	00 
    real_find(va, false);
   43356:	ba 00 00 00 00       	mov    $0x0,%edx
   4335b:	4c 89 ee             	mov    %r13,%rsi
   4335e:	48 8d 7d 88          	lea    -0x78(%rbp),%rdi
   43362:	e8 bf ef ff ff       	call   42326 <vmiter::real_find(unsigned long, bool)>
    if (*pep_ & PTE_P) {
   43367:	48 8b 45 90          	mov    -0x70(%rbp),%rax
   4336b:	48 8b 00             	mov    (%rax),%rax
   4336e:	a8 01                	test   $0x1,%al
   43370:	0f 84 51 ff ff ff    	je     432c7 <print_backtrace(printer&, regstate const&, x86_64_pagetable*, bool)+0x390>
        if (lbits_ > PAGEOFFBITS) {
   43376:	8b 4d 98             	mov    -0x68(%rbp),%ecx
        uintptr_t pa = *pep_ & PTE_PAMASK;
   43379:	48 ba 00 f0 ff ff ff 	movabs $0xffffffffff000,%rdx
   43380:	ff 0f 00 
   43383:	48 21 c2             	and    %rax,%rdx
   43386:	48 be 00 e0 ff ff ff 	movabs $0xfffffffffe000,%rsi
   4338d:	ff 0f 00 
   43390:	48 21 f0             	and    %rsi,%rax
   43393:	83 f9 0c             	cmp    $0xc,%ecx
   43396:	48 0f 4f d0          	cmovg  %rax,%rdx
    return ~(~uintptr_t(0) << lbits);
   4339a:	4c 89 f8             	mov    %r15,%rax
   4339d:	48 d3 e0             	shl    %cl,%rax
   433a0:	48 f7 d0             	not    %rax
        return pa + (va_ & lbits_mask(lbits_));
   433a3:	48 23 45 a0          	and    -0x60(%rbp),%rax
   433a7:	48 01 d0             	add    %rdx,%rax
        return reinterpret_cast<T>(pa());
   433aa:	e9 1d ff ff ff       	jmp    432cc <print_backtrace(printer&, regstate const&, x86_64_pagetable*, bool)+0x395>
            return deref(rbp_ + 8);
   433af:	48 8b 45 a8          	mov    -0x58(%rbp),%rax
   433b3:	48 8d 70 08          	lea    0x8(%rax),%rsi
        return *vmiter(pt_, va).kptr<const uintptr_t*>();
   433b7:	48 8b 45 c8          	mov    -0x38(%rbp),%rax
    : pt_(pt), pep_(&pt_->entry[0]), lbits_(initial_lbits),
   433bb:	48 89 45 88          	mov    %rax,-0x78(%rbp)
   433bf:	48 89 45 90          	mov    %rax,-0x70(%rbp)
   433c3:	c7 45 98 27 00 00 00 	movl   $0x27,-0x68(%rbp)
      perm_(initial_perm), va_(0) {
   433ca:	c7 45 9c ff 0f 00 00 	movl   $0xfff,-0x64(%rbp)
   433d1:	48 c7 45 a0 00 00 00 	movq   $0x0,-0x60(%rbp)
   433d8:	00 
    real_find(va, false);
   433d9:	ba 00 00 00 00       	mov    $0x0,%edx
   433de:	48 8d 7d 88          	lea    -0x78(%rbp),%rdi
   433e2:	e8 3f ef ff ff       	call   42326 <vmiter::real_find(unsigned long, bool)>
    if (*pep_ & PTE_P) {
   433e7:	48 8b 45 90          	mov    -0x70(%rbp),%rax
   433eb:	48 8b 00             	mov    (%rax),%rax
   433ee:	a8 01                	test   $0x1,%al
   433f0:	74 3c                	je     4342e <print_backtrace(printer&, regstate const&, x86_64_pagetable*, bool)+0x4f7>
        if (lbits_ > PAGEOFFBITS) {
   433f2:	8b 4d 98             	mov    -0x68(%rbp),%ecx
        uintptr_t pa = *pep_ & PTE_PAMASK;
   433f5:	48 ba 00 f0 ff ff ff 	movabs $0xffffffffff000,%rdx
   433fc:	ff 0f 00 
   433ff:	48 21 c2             	and    %rax,%rdx
   43402:	48 be 00 e0 ff ff ff 	movabs $0xfffffffffe000,%rsi
   43409:	ff 0f 00 
   4340c:	48 21 f0             	and    %rsi,%rax
   4340f:	83 f9 0c             	cmp    $0xc,%ecx
   43412:	48 0f 4f d0          	cmovg  %rax,%rdx
    return ~(~uintptr_t(0) << lbits);
   43416:	4c 89 f8             	mov    %r15,%rax
   43419:	48 d3 e0             	shl    %cl,%rax
   4341c:	48 f7 d0             	not    %rax
        return pa + (va_ & lbits_mask(lbits_));
   4341f:	48 23 45 a0          	and    -0x60(%rbp),%rax
   43423:	48 01 d0             	add    %rdx,%rax
   43426:	4c 8b 28             	mov    (%rax),%r13
            return deref(rbp_ + 8);
   43429:	e9 a1 fe ff ff       	jmp    432cf <print_backtrace(printer&, regstate const&, x86_64_pagetable*, bool)+0x398>
        return nullptr;
   4342e:	b8 00 00 00 00       	mov    $0x0,%eax
   43433:	eb f1                	jmp    43426 <print_backtrace(printer&, regstate const&, x86_64_pagetable*, bool)+0x4ef>
            pr.printf("  #%d  %p\n", frame, ret_rip);
   43435:	4c 89 e9             	mov    %r13,%rcx
   43438:	89 da                	mov    %ebx,%edx
   4343a:	be 81 60 04 00       	mov    $0x46081,%esi
   4343f:	4c 89 f7             	mov    %r14,%rdi
   43442:	b8 00 00 00 00       	mov    $0x0,%eax
   43447:	e8 90 27 00 00       	call   45bdc <printer::printf(char const*, ...)>
   4344c:	e9 b3 fe ff ff       	jmp    43304 <print_backtrace(printer&, regstate const&, x86_64_pagetable*, bool)+0x3cd>
            rsp_ = rbp_ + 16;
   43451:	48 8b 75 a8          	mov    -0x58(%rbp),%rsi
   43455:	48 8d 46 10          	lea    0x10(%rsi),%rax
   43459:	48 89 45 b0          	mov    %rax,-0x50(%rbp)
        return *vmiter(pt_, va).kptr<const uintptr_t*>();
   4345d:	48 8b 45 c8          	mov    -0x38(%rbp),%rax
    : pt_(pt), pep_(&pt_->entry[0]), lbits_(initial_lbits),
   43461:	48 89 45 88          	mov    %rax,-0x78(%rbp)
   43465:	48 89 45 90          	mov    %rax,-0x70(%rbp)
   43469:	c7 45 98 27 00 00 00 	movl   $0x27,-0x68(%rbp)
      perm_(initial_perm), va_(0) {
   43470:	c7 45 9c ff 0f 00 00 	movl   $0xfff,-0x64(%rbp)
   43477:	48 c7 45 a0 00 00 00 	movq   $0x0,-0x60(%rbp)
   4347e:	00 
    real_find(va, false);
   4347f:	ba 00 00 00 00       	mov    $0x0,%edx
   43484:	48 8d 7d 88          	lea    -0x78(%rbp),%rdi
